(lp0
Vunimaginative
p1
aVfoul
p2
aVhanging
p3
aVconjuring
p4
aVcomically
p5
aVmarching
p6
aVcrooned
p7
aVfiddling
p8
aVsuperficially
p9
aVxtc
p10
aVdemoted
p11
aVrational
p12
aVtantalizing
p13
aVleisurely
p14
aVscreaming
p15
aVpicaresque
p16
aVdisturb
p17
aVgrueling
p18
aVpiling
p19
aVpeerlessly
p20
aVoooh
p21
aVstereotypical
p22
aVhowlingly
p23
aVstraight
p24
aVspecially
p25
aVtired
p26
aVmiller
p27
aVpubic
p28
aVelegant
p29
aVsecond
p30
aVvaliant
p31
aVconsenting
p32
aVshrugging
p33
aVsterile
p34
aVloathing
p35
aVhilariously
p36
aVbrexit
p37
aVreopens
p38
aVcooking
p39
aVcontributed
p40
aVcontributes
p41
aVsuccumb
p42
aVcuckolding
p43
aVintentioned
p44
aVinterrupting
p45
aVbrainwashed
p46
aVhere
p47
aVreported
p48
aVchina
p49
aVshandling
p50
aVnatured
p51
aVtransfixes
p52
aVsubstance
p53
aVuplifting
p54
aVelaborate
p55
aVkarim
p56
aVmilitary
p57
aVgolden
p58
aVdivide
p59
aVexplained
p60
aVlynne
p61
aVbrought
p62
aVchutyo
p63
aVgovermet
p64
aVspoke
p65
aVcatchy
p66
aVcowering
p67
aVdnt
p68
aVviolently
p69
aVstrike
p70
aVborstal
p71
aVstandardized
p72
aVholy
p73
aVrelax
p74
aVsuccessful
p75
aVbrings
p76
aVmesmerize
p77
aVscuzzy
p78
aVhurt
p79
aVexuberantly
p80
aVhole
p81
aVhold
p82
aVmajidi
p83
aVfluidly
p84
aVmorally
p85
aVlocked
p86
aVhuppert
p87
aVpursue
p88
aVinclineds
p89
aVaccomplishment
p90
aVstraddle
p91
aVexample
p92
aVexpressively
p93
aVowes
p94
aVcocksucked
p95
aVorganized
p96
aVpusssy
p97
aVrecoing
p98
aVreviewing
p99
aVwant
p100
aVumid
p101
aVabsolute
p102
aVprovincial
p103
aVtchaikovsky
p104
aVcomplaining
p105
aVtravel
p106
aVcopious
p107
aVhot
p108
aVretooled
p109
aVclassify
p110
aVuncinematic
p111
aVmueller
p112
aVfookin
p113
aVassimilated
p114
aVwrong
p115
aVquips
p116
aVdestined
p117
aVcolorfully
p118
aVeffective
p119
aVwins
p120
aVromped
p121
aVfictional
p122
aVsickening
p123
aValias
p124
aVsnowballs
p125
aVpilley
p126
aVkeeps
p127
aVdemocratic
p128
aVnonsensical
p129
aVwing
p130
aVwind
p131
aVsprawling
p132
aVwelcomed
p133
aVdreamed
p134
aVvary
p135
aVasswhole
p136
aVbenefited
p137
aVchomps
p138
aVrewarded
p139
aVwrought
p140
aVachingly
p141
aVadmirably
p142
aVconned
p143
aVwickedly
p144
aVfit
p145
aVbringing
p146
aVfix
p147
aVstriking
p148
aVmatured
p149
aVhidden
p150
aVadmirable
p151
aVeasier
p152
aVincongruous
p153
aVmemorialize
p154
aVneuzrakstiiji
p155
aVmimicking
p156
aVsilver
p157
aVebullient
p158
aVrepresents
p159
aVclobbering
p160
aVmerrily
p161
aVwhacking
p162
aVdebut
p163
aVinterfering
p164
aVpissu
p165
aVpreceded
p166
aVfinancial
p167
aVreputedly
p168
aVspider
p169
aVwierzbicki
p170
aVdillusional
p171
aVdepositing
p172
aVyiddish
p173
aVblinded
p174
aVwhip
p175
aVsmirk
p176
aVurbane
p177
aVre
p178
aVencourage
p179
aVgroans
p180
aVassured
p181
aVthreatened
p182
aVsurveys
p183
aVmindedly
p184
aVnecessarily
p185
aVencountering
p186
aVenormous
p187
aVate
p188
aVexposing
p189
aVsickeningly
p190
aVcommented
p191
aVdisturbed
p192
aVtempting
p193
aVreserving
p194
aVmislabel
p195
aVunflappable
p196
aVcaught
p197
aVangelic
p198
aVplayfully
p199
aVchannels
p200
aVwash
p201
aVseinfeld
p202
aVwasn
p203
aVcumshot
p204
aVbitten
p205
aVtidelander
p206
aVservice
p207
aVsimilarly
p208
aVneeded
p209
aVmaster
p210
aVlisted
p211
aVtangy
p212
aVlegs
p213
aVbitter
p214
aVranging
p215
aVlisten
p216
aVenthrall
p217
aVcanned
p218
aVpredictably
p219
aVpredictable
p220
aVlegally
p221
aVcrawl
p222
aVpositively
p223
aVtrek
p224
aVperil
p225
aVshowed
p226
aVcoward
p227
aVcrave
p228
aVfeelins
p229
aVendure
p230
aVfeeling
p231
aVsh1t
p232
aVfevered
p233
aVhue
p234
aVhetrosexual
p235
aVcorny
p236
aVurinate
p237
aVwholesome
p238
aVsoaked
p239
aVeagerly
p240
aVrecommended
p241
aVabsorbed
p242
aVamusing
p243
aVnthat
p244
aVpander
p245
aVreverberates
p246
aVobject
p247
aVcinematic
p248
aVresonates
p249
aVlandmark
p250
aVmouth
p251
aVforwarded
p252
aVretaining
p253
aVthriller
p254
aVexpound
p255
aVkaali
p256
aVobsessive
p257
aVchardonne
p258
aVcamp
p259
aVforiegn
p260
aVtech
p261
aVsuspending
p262
aVscream
p263
aVcame
p264
aVmarvel
p265
aVsaying
p266
aVprim
p267
aVnominated
p268
aVpadded
p269
aVtempted
p270
aVfixating
p271
aVcaper
p272
aVgotya
p273
aVtouches
p274
aVbusy
p275
aVitinerant
p276
aVbust
p277
aVdumbfuck
p278
aVlube
p279
aVtouched
p280
aVrich
p281
aVfoolishly
p282
aVlady
p283
aVcubic
p284
aVculkin
p285
aVforemost
p286
aVcushion
p287
aValtogether
p288
aVtawdry
p289
aVdroning
p290
aVstoically
p291
aVnicely
p292
aVmaverick
p293
aVpatch
p294
aVgreene
p295
aVunrelentingly
p296
aVstunningly
p297
aVrelease
p298
aVrespond
p299
aVtraverse
p300
aVfair
p301
aVpentacostal
p302
aVunfussily
p303
aVdeemed
p304
aVunexpectedly
p305
aVbled
p306
aVfail
p307
aVnocturnal
p308
aVhammer
p309
aVbest
p310
aVdeadpan
p311
aVrings
p312
aVsuge
p313
aVscore
p314
aVconceptual
p315
aVoccupational
p316
aVskimpy
p317
aVclaws
p318
aVparallels
p319
aVextend
p320
aVnature
p321
aVrolled
p322
aVlapping
p323
aVtwinkling
p324
aVunseemly
p325
aVcarbon
p326
aVdysfunctionally
p327
aVsacrificing
p328
aVplanned
p329
aVlookin
p330
aVlogic
p331
aVargue
p332
aVadapted
p333
aVasked
p334
aVfearlessly
p335
aValternate
p336
aVunbuttoned
p337
aVcalvinklein
p338
aVirresponsible
p339
aVkurosawa
p340
aVunprotected
p341
aVretelling
p342
aVblonde
p343
aVaddessi
p344
aVbothers
p345
aVmuch
p346
aVfecking
p347
aVadroitly
p348
aVincompetent
p349
aVdots
p350
aVobese
p351
aVheadly
p352
aVspit
p353
aVeastern
p354
aVfilmmaker
p355
aVcripled
p356
aVlift
p357
aVdoubts
p358
aVworked
p359
aVspin
p360
aVskilfully
p361
aVdiverted
p362
aVgritty
p363
aVcastro
p364
aVemploy
p365
aVsymbolically
p366
aVhates
p367
aVk
p368
aVskirts
p369
aVremembering
p370
aVplayed
p371
aVconditioned
p372
aVcharacterize
p373
aVelicit
p374
aVupscale
p375
aVcaesar
p376
aVhong
p377
aVinventively
p378
aVjolting
p379
aVyellow
p380
aVdemands
p381
aVany
p382
aVhaphazard
p383
aVsplit
p384
aVelliott
p385
aVemphatic
p386
aVeuropean
p387
aVfairly
p388
aVeffortlessly
p389
aVinadvertently
p390
aVdexterous
p391
aVyoursilf
p392
aVtoback
p393
aVsymmetrical
p394
aVfeatherweight
p395
aVpersonifying
p396
aVstupendous
p397
aVechoed
p398
aVfanatically
p399
aVgoofing
p400
aVbackhanded
p401
aVcorporate
p402
aVspurred
p403
aVsleeps
p404
aVappropriately
p405
aVsleepy
p406
aVterrorist
p407
aVstultifyingly
p408
aVcredited
p409
aVrushing
p410
aVamusingly
p411
aVprevious
p412
aVhai
p413
aVdropped
p414
aVgadde
p415
aVhad
p416
aVideal
p417
aVtopical
p418
aVbeloved
p419
aVhas
p420
aVespoused
p421
aVpreciously
p422
aVnobjocky
p423
aVdrably
p424
aVunblinkingly
p425
aVmediocre
p426
aVsurvival
p427
aVpossible
p428
aVunequivocally
p429
aVpossibly
p430
aVotherworldly
p431
aVimposed
p432
aVshadow
p433
aVunique
p434
aVoccurring
p435
aVphilibert
p436
aVpsychological
p437
aVarticulated
p438
aVbobby
p439
aVxa027
p440
aVvegan
p441
aVremind
p442
aVarticulates
p443
aVgrotesquely
p444
aVunabashedly
p445
aVright
p446
aVold
p447
aVcrowd
p448
aVtruncated
p449
aVshitted
p450
aVfuuuuck
p451
aVcreep
p452
aVfor
p453
aVbottom
p454
aVinhuman
p455
aVpolluted
p456
aVwitty
p457
aVruffles
p458
aVuma
p459
aVgerminate
p460
aVfok
p461
aVpalatable
p462
aVknobhead
p463
aVneatly
p464
aVkrawczyk
p465
aVlefty
p466
aVdemencial
p467
aVshifting
p468
aVdefensive
p469
aVlosing
p470
aVmemorable
p471
aVliye
p472
aVshaken
p473
aVtranscends
p474
aVsoaking
p475
aVo
p476
aVbicentennial
p477
aVrepellent
p478
aVspins
p479
aVstoked
p480
aVslightly
p481
aVemilie
p482
aVraised
p483
aVsob
p484
aVmarshall
p485
aVsoo
p486
aVrespectable
p487
aVraises
p488
aVwrap
p489
aVshoots
p490
aVreducing
p491
aVappealingly
p492
aVnonthreatening
p493
aVconstantly
p494
aVraped
p495
aVuncluttered
p496
aVhumorous
p497
aVhappy
p498
aVunderestimated
p499
aVunfree
p500
aVoffer
p501
aVabundantly
p502
aVunderstandable
p503
aVsurvive
p504
aVvietnamese
p505
aVfemboy
p506
aVhandily
p507
aVinside
p508
aVazz
p509
aVnicest
p510
aVlays
p511
aVjuvenile
p512
aVlater
p513
aVproved
p514
aVbarrymore
p515
aVpercolating
p516
aVunnerve
p517
aVproven
p518
aVsoothe
p519
aVproves
p520
aVexist
p521
aVkha
p522
aVkhe
p523
aVheartbreakingly
p524
aVeventual
p525
aVtrollin
p526
aVactor
p527
aVgrammatical
p528
aVzany
p529
aVoverturning
p530
aVsmell
p531
aVroll
p532
aVtransported
p533
aVimpregnated
p534
aVreruns
p535
aVintent
p536
aVsmelling
p537
aVrolling
p538
aVaragorn
p539
aVlogra
p540
aVdunst
p541
aVgoaded
p542
aVassho
p543
aVcrocodile
p544
aVjizz
p545
aVjarring
p546
aVbitchin
p547
aVuneven
p548
aVrousing
p549
aVvex
p550
aVatavistic
p551
aVpasine
p552
aVeliminate
p553
aVtenacious
p554
aVjerk
p555
aVembark
p556
aVtheharleyjade
p557
aVrapturous
p558
aVstays
p559
aVminute
p560
aVcooks
p561
aVtear
p562
aVmasturbates
p563
aVcameo
p564
aVskewed
p565
aVleave
p566
aVengrossing
p567
aVnewtish
p568
aVprevent
p569
aVspiritual
p570
aVblade
p571
aVfindings
p572
aVinsignificant
p573
aVhindered
p574
aVnikla
p575
aVsign
p576
aVheavyweight
p577
aVadorns
p578
aVeducate
p579
aVcelebrated
p580
aVidoosyncratic
p581
aVmelt
p582
aVcurrent
p583
aVwayward
p584
aVfalling
p585
aVcelebrates
p586
aVunintentionally
p587
aVhugefacial
p588
aVassertive
p589
aVfuneral
p590
aVplucking
p591
aVunderstanding
p592
aVaddress
p593
aValone
p594
aValong
p595
aVanchoring
p596
aVaccomplishes
p597
aVbrilliant
p598
aVstudied
p599
aVfunded
p600
aVpersnickety
p601
aVaccomplished
p602
aVlove
p603
aVgriffiths
p604
aVprefer
p605
aVlogical
p606
aVbloody
p607
aVmarvelous
p608
aVfake
p609
aVaaya
p610
aVflagging
p611
aVcrammed
p612
aVworking
p613
aVpositive
p614
aVangry
p615
aVdistancing
p616
aVanatomical
p617
aVsisterly
p618
aVcherished
p619
aVopposed
p620
aVwondering
p621
aVfilms
p622
aVloving
p623
aVintroducing
p624
aVconsoled
p625
aVafford
p626
aVapparent
p627
aVvisual
p628
aVignorant
p629
aVscratches
p630
aVoriginally
p631
aVfacilitating
p632
aVprivy
p633
aVbelieves
p634
aVfollowing
p635
aVdetached
p636
aVmunroe
p637
aVadmired
p638
aVfigahs
p639
aVmirrors
p640
aVawesome
p641
aVunveiled
p642
aVallowed
p643
aVstole
p644
aVevidently
p645
aVlistens
p646
aVyelled
p647
aVunintentional
p648
aVsavor
p649
aVbuttered
p650
aVcocksucker
p651
aVimmune
p652
aVlechita
p653
aVelephant
p654
aVunforgettable
p655
aVreconfigured
p656
aVindulgently
p657
aVexplores
p658
aVspot
p659
aVconvincingly
p660
aVfueled
p661
aVexplored
p662
aVsuch
p663
aVsuck
p664
aVunwinnable
p665
aVrevealed
p666
aVshockingly
p667
aVharmon
p668
aVsy
p669
aVnatural
p670
aVconscious
p671
aVcucky
p672
aVbiographical
p673
aVsi
p674
aVsh
p675
aVso
p676
aVswollen
p677
aVpulled
p678
aVse
p679
aVinnocuous
p680
aVnoteworthy
p681
aVreaffirms
p682
aVunacceptable
p683
aVkong
p684
aVdyspeptic
p685
aVthoughtfulness
p686
aVdjs
p687
aVdespotic
p688
aVtorn
p689
aVtori
p690
aVtulo
p691
aVdwarfs
p692
aVthump
p693
aVtroubled
p694
aVdeviant
p695
aVinstantly
p696
aVdownsizing
p697
aVconveying
p698
aVhop
p699
aVthereby
p700
aVmatches
p701
aVsmarter
p702
aVcompelled
p703
aVarriving
p704
aVscorsese
p705
aVmaintaining
p706
aVmatched
p707
aVgoofily
p708
aVdidn
p709
aVestablishing
p710
aVrecharged
p711
aVfabian
p712
aVbowling
p713
aVsquare
p714
aVbursting
p715
aVgaming
p716
aVcrushing
p717
aVbreakthrough
p718
aVentering
p719
aVsexually
p720
aVtroll
p721
aVhighways
p722
aVrounding
p723
aVcontained
p724
aVinternet
p725
aVsuggesting
p726
aVformula
p727
aVkatie
p728
aVchemically
p729
aVquite
p730
aVprostituted
p731
aVcomplicated
p732
aVcrazier
p733
aVintensely
p734
aVkaufmann
p735
aVdisguised
p736
aVsneaky
p737
aVpunk
p738
aVmodest
p739
aVryan
p740
aVspending
p741
aVmassive
p742
aVsaving
p743
aVheadbanger
p744
aVspoken
p745
aVong
p746
aVsubmit
p747
aVspanish
p748
aVvote
p749
aVopen
p750
aVripping
p751
aVbite
p752
aVstructured
p753
aVbhadve
p754
aVteacher
p755
aVstuffed
p756
aVincarcerated
p757
aVstructures
p758
aVunreligious
p759
aVwilliams
p760
aVslasher
p761
aVfloppy
p762
aVproving
p763
aVmeddling
p764
aVridiculous
p765
aVantic
p766
aVestrogen
p767
aVfooled
p768
aVphotographic
p769
aVtranslate
p770
aVrival
p771
aVanteing
p772
aVfuture
p773
aVtyhe
p774
aVglossy
p775
aVdamned
p776
aVcompanionable
p777
aVdutifully
p778
aVaddressing
p779
aVsan
p780
aVsam
p781
aVguzm
p782
aVsumptuous
p783
aVturned
p784
aVsad
p785
aVsay
p786
aVburied
p787
aVallen
p788
aVbewilderingly
p789
aVsaw
p790
aVelsewhere
p791
aVcyberfucking
p792
aVsanctimonious
p793
aVaside
p794
aVzoo
p795
aVtake
p796
aVroadside
p797
aVdestroy
p798
aVhedonistic
p799
aVironically
p800
aVcandidly
p801
aVdiscerning
p802
aVknew
p803
aVsuspects
p804
aVknowingly
p805
aVinserted
p806
aVcaptivatingly
p807
aVaverage
p808
aVdrive
p809
aVmanaging
p810
aVlink
p811
aVincite
p812
aVwalking
p813
aVimagines
p814
aVbright
p815
aVinconsistent
p816
aVaggressive
p817
aVimagined
p818
aVslow
p819
aVfarting
p820
aVfluid
p821
aVgoind
p822
aVgoing
p823
aVteary
p824
aVguarded
p825
aVsimplistic
p826
aVprime
p827
aVundemanding
p828
aVkeenly
p829
aVhinges
p830
aVborrow
p831
aVabsurdly
p832
aVworried
p833
aVpriest
p834
aVliable
p835
aVworries
p836
aVuncover
p837
aVmarred
p838
aVltimos
p839
aVespn
p840
aVartistically
p841
aVbanged
p842
aVpsych
p843
aVamericanized
p844
aVlilia
p845
aVpurest
p846
aVjeong
p847
aVintoxicating
p848
aVrefreshes
p849
aVenlightening
p850
aVsites
p851
aVrefreshed
p852
aVaffecting
p853
aVbhaari
p854
aVenjoys
p855
aVwelcomes
p856
aVexpressionistic
p857
aVmature
p858
aVmarvin
p859
aVscreen
p860
aVadept
p861
aVconcentrate
p862
aVspare
p863
aVnbtw
p864
aVmoviemaking
p865
aVlovingly
p866
aVsuppressed
p867
aVdeliciously
p868
aVpuerile
p869
aVfarcical
p870
aVmany
p871
aVsip
p872
aVeriously
p873
aVs
p874
aVloudly
p875
aVkahlo
p876
aVconcentrates
p877
aVsemitic
p878
aVfuktwatcockbitchfag
p879
aVextravagantly
p880
aVformalist
p881
aVtwin
p882
aVanti
p883
aVbombard
p884
aVextinct
p885
aVboat
p886
aVnarcissistic
p887
aVcaring
p888
aVswashbuckling
p889
aVunconsciousness
p890
aVwest
p891
aVneedlessly
p892
aVraging
p893
aVcunt
p894
aVcombined
p895
aVnit
p896
aVreflective
p897
aVhilarity
p898
aVwants
p899
aVrekindles
p900
aVbenoit
p901
aVwantz
p902
aVformed
p903
aVobserve
p904
aVextant
p905
aVwilco
p906
aVformer
p907
aVpolly
p908
aVqueasy
p909
aVprofane
p910
aVisabelle
p911
aVsingle
p912
aVsqueezes
p913
aVintimately
p914
aVconfidently
p915
aVsqueezed
p916
aVtwisty
p917
aVtwists
p918
aVengaged
p919
aVdubious
p920
aVanim
p921
aVengages
p922
aVaugustinian
p923
aVrooting
p924
aVthreatens
p925
aVscientifically
p926
aVanjalivinod3534
p927
aVdamon
p928
aVinoffensive
p929
aVvisually
p930
aVedged
p931
aVinfuriatingly
p932
aVdeft
p933
aVboosted
p934
aVdefy
p935
aVcallow
p936
aVdomineering
p937
aVcheery
p938
aVtracking
p939
aVdroppingly
p940
aVpacing
p941
aVengulfing
p942
aVbravura
p943
aVquixotic
p944
aVphukking
p945
aVmorons
p946
aVbeing
p947
aVcomposing
p948
aVelysian
p949
aVrest
p950
aVrecycled
p951
aVfateful
p952
aVpreventing
p953
aVinterstitial
p954
aVprominently
p955
aVjoyful
p956
aVellen
p957
aVstarving
p958
aVaround
p959
aVunerring
p960
aVproblemas
p961
aVdark
p962
aVdarn
p963
aVvacuum
p964
aVlibs
p965
aVredistributing
p966
aVdare
p967
aVsensational
p968
aVstranger
p969
aVunrepentant
p970
aVclad
p971
aVinexplicably
p972
aVdiscarded
p973
aVexpository
p974
aVtart
p975
aVsatisfactory
p976
aVdemeaning
p977
aVracial
p978
aVdivine
p979
aVthinks
p980
aVscandals
p981
aVnoob
p982
aVriveting
p983
aVsymbiotic
p984
aVgulam
p985
aVsearing
p986
aVexit
p987
aVnoor
p988
aVrestoring
p989
aVrefer
p990
aVbiased
p991
aVintimate
p992
aVretains
p993
aViconic
p994
aVbona
p995
aVstone
p996
aVbreezily
p997
aVfavorite
p998
aVact
p999
aVpahna
p1000
aVlofty
p1001
aVsensitively
p1002
aVshapely
p1003
aVburning
p1004
aVflawed
p1005
aVteambigblackdick
p1006
aVlegged
p1007
aVcharly
p1008
aVsneering
p1009
aVlively
p1010
aVconceptually
p1011
aVtechnically
p1012
aVbubbly
p1013
aVitalianas
p1014
aVreinvigorated
p1015
aVhes
p1016
aVtransexual
p1017
aVhey
p1018
aVfutile
p1019
aVbubble
p1020
aVsurvives
p1021
aVcomplete
p1022
aVmourns
p1023
aVgliding
p1024
aVtailored
p1025
aVsocietal
p1026
aVmick
p1027
aVsurvived
p1028
aVnachtwey
p1029
aVplucky
p1030
aVhandsome
p1031
aVpull
p1032
aVrush
p1033
aVmarna
p1034
aVdirty
p1035
aVmopping
p1036
aVespectacular
p1037
aVpolitically
p1038
aVagree
p1039
aVnonjudgmentally
p1040
aVdetailed
p1041
aVgone
p1042
aVwendigo
p1043
aVgong
p1044
aVjohnny
p1045
aVgratuitous
p1046
aVexhausted
p1047
aVah
p1048
aVstealing
p1049
aVam
p1050
aVwartime
p1051
aVkuch
p1052
aVas
p1053
aVcarved
p1054
aVav
p1055
aVwatched
p1056
aVtranquil
p1057
aVtremble
p1058
aVcream
p1059
aVideally
p1060
aVmollysissybimbo
p1061
aVsanguine
p1062
aVsympathetically
p1063
aVtight
p1064
aVfriggin
p1065
aVpunching
p1066
aVdisgraceful
p1067
aVbizarrely
p1068
aVvocabulary
p1069
aVforgettable
p1070
aVherzog
p1071
aVestela
p1072
aVwaving
p1073
aVslang
p1074
aVtricky
p1075
aVposible
p1076
aVsnagged
p1077
aVomnibus
p1078
aVtricks
p1079
aVlapaglia
p1080
aVmast
p1081
aVadam
p1082
aVoriginal
p1083
aVconsider
p1084
aVcaused
p1085
aVrecapturing
p1086
aVkhtm
p1087
aVcareful
p1088
aVhunting
p1089
aVtu
p1090
aVl33t
p1091
aVliberalitas
p1092
aVchewing
p1093
aVth
p1094
aVsmile
p1095
aVte
p1096
aVnorm
p1097
aVta
p1098
aVpowaqqatsi
p1099
aVrecessive
p1100
aVcandid
p1101
aVdiary
p1102
aVoffal
p1103
aVenjoyable
p1104
aVmarvellous
p1105
aVoverprotective
p1106
aVawsome
p1107
aVlaying
p1108
aVjoined
p1109
aVlarge
p1110
aVsang
p1111
aVscrapping
p1112
aVsane
p1113
aVharry
p1114
aVsmall
p1115
aVtosses
p1116
aVmaggie
p1117
aVhumongous
p1118
aVmethodical
p1119
aVbeja
p1120
aVpast
p1121
aVdisplays
p1122
aVpass
p1123
aVhandicapped
p1124
aVhormonal
p1125
aVpoisonous
p1126
aVfucks
p1127
aVfuckk
p1128
aVsuccinct
p1129
aVrevealing
p1130
aVhasn
p1131
aVfull
p1132
aVescaping
p1133
aVleaping
p1134
aVportrays
p1135
aVsmartest
p1136
aVcorniest
p1137
aVmelancholic
p1138
aVweirded
p1139
aVexperience
p1140
aVprior
p1141
aVinfrequently
p1142
aVpick
p1143
aVmurdering
p1144
aVsweetness
p1145
aVappealling
p1146
aVfollowed
p1147
aVvin
p1148
aVconspiratorial
p1149
aVpulls
p1150
aVgosh
p1151
aVselect
p1152
aVpitching
p1153
aVgorgeous
p1154
aVmore
p1155
aVteen
p1156
aVafixing
p1157
aVfellow
p1158
aVinitiated
p1159
aVinquisitiveness
p1160
aVspoilt
p1161
aVcorrected
p1162
aVtested
p1163
aVdoob
p1164
aVuncool
p1165
aVcunning
p1166
aVevolves
p1167
aVkeeping
p1168
aVfatal
p1169
aVfarted
p1170
aVevolved
p1171
aVlearn
p1172
aVmale
p1173
aVbeautiful
p1174
aVstated
p1175
aVrodriguez
p1176
aVcellmate
p1177
aVneglected
p1178
aVnypocrtical
p1179
aVaccept
p1180
aVfiercely
p1181
aVdress
p1182
aVsikh
p1183
aVhuge
p1184
aVrespective
p1185
aVimminent
p1186
aVlejos
p1187
aVhugh
p1188
aVdismissed
p1189
aVish
p1190
aVfreshly
p1191
aVbrowns
p1192
aVxa0shit
p1193
aVunburdened
p1194
aVaplenty
p1195
aVintended
p1196
aVoleander
p1197
aVbrett
p1198
aVsoundtrack
p1199
aVmmm
p1200
aVfervently
p1201
aVauthentic
p1202
aVimagery
p1203
aVresemble
p1204
aVinbred
p1205
aVregister
p1206
aVbable
p1207
aVfundamental
p1208
aVreplied
p1209
aVadorned
p1210
aVmexican
p1211
aVpanv
p1212
aVleigh
p1213
aVtrade
p1214
aVresorts
p1215
aVembassy
p1216
aVscott
p1217
aVbrim
p1218
aVsugarcoated
p1219
aVsmiling
p1220
aVdecorating
p1221
aVgondry
p1222
aVbummed
p1223
aVzippy
p1224
aVlaced
p1225
aVlicks
p1226
aVrapidly
p1227
aVruining
p1228
aVbypass
p1229
aVnifty
p1230
aVxa0again
p1231
aVtravelling
p1232
aVally
p1233
aVwry
p1234
aVleonine
p1235
aVseverely
p1236
aVsubtitled
p1237
aVwasabi
p1238
aVrespectful
p1239
aVeverytime
p1240
aVcoping
p1241
aValways
p1242
aVloosely
p1243
aVspinning
p1244
aVstrangling
p1245
aVhornist
p1246
aVacademic
p1247
aVreassures
p1248
aVfound
p1249
aVshocking
p1250
aVdimwit
p1251
aVlantern
p1252
aVbends
p1253
aVcoding
p1254
aVreduce
p1255
aVscotched
p1256
aVreally
p1257
aVtry
p1258
aVmissed
p1259
aVmisses
p1260
aVdarling
p1261
aVbeavis
p1262
aVbubba
p1263
aVsalute
p1264
aVdorkier
p1265
aVsparked
p1266
aVqualify
p1267
aVconditioning
p1268
aVimagine
p1269
aVecologically
p1270
aVrises
p1271
aVgirly
p1272
aVlingual
p1273
aVw
p1274
aVexistential
p1275
aVimpart
p1276
aVmajor
p1277
aVrooted
p1278
aVthereafter
p1279
aVbrutally
p1280
aVhavvee
p1281
aVspiritually
p1282
aVethereal
p1283
aVjer
p1284
aVguess
p1285
aVkumming
p1286
aVcradles
p1287
aVmoderately
p1288
aVheady
p1289
aVschlocky
p1290
aVcampair
p1291
aVwarmly
p1292
aVpichly
p1293
aVinterviewed
p1294
aVimmediate
p1295
aVsatirical
p1296
aVelling
p1297
aVfocusing
p1298
aVendlessly
p1299
aVgrace
p1300
aVobama
p1301
aVcritically
p1302
aVfekh
p1303
aViranian
p1304
aVindivudal
p1305
aVvocal
p1306
aVdefends
p1307
aVdetermined
p1308
aVpurposeful
p1309
aVremembers
p1310
aVbhi
p1311
aVdelectable
p1312
aVfights
p1313
aVbhe
p1314
aVrecital
p1315
aVpedestrian
p1316
aVcaress
p1317
aVmawkish
p1318
aVsell
p1319
aVgeneva
p1320
aVself
p1321
aValso
p1322
aVinternal
p1323
aVplay
p1324
aVsingles
p1325
aVswiftly
p1326
aVeffecting
p1327
aVplan
p1328
aVaccepting
p1329
aVfunnier
p1330
aVunderstands
p1331
aVevry
p1332
aVfiscally
p1333
aVcover
p1334
aVbarred
p1335
aVnlheels
p1336
aVartistic
p1337
aVattacking
p1338
aVdespise
p1339
aVblended
p1340
aVdicaprio
p1341
aVdefended
p1342
aVparochial
p1343
aVnaomi
p1344
aVdegraded
p1345
aVoverwhelmed
p1346
aVimpact
p1347
aVwraps
p1348
aVsayin
p1349
aVundying
p1350
aVshekhar
p1351
aVfailed
p1352
aVindian
p1353
aVuruk
p1354
aVatheistic
p1355
aVdependent
p1356
aVbanned
p1357
aVsunny
p1358
aVresent
p1359
aVclosely
p1360
aVcharmingly
p1361
aVfatale
p1362
aVfrightening
p1363
aVadapts
p1364
aVprogressive
p1365
aVcry
p1366
aVcleaving
p1367
aVterrifically
p1368
aVproclaim
p1369
aVsurrendering
p1370
aVweaver
p1371
aVweaves
p1372
aVapproaching
p1373
aVinsane
p1374
aVdelicately
p1375
aVset
p1376
aVoverwhelm
p1377
aVbundling
p1378
aVpotent
p1379
aVsex
p1380
aVcollectively
p1381
aVsee
p1382
aVsen
p1383
aVmovin
p1384
aVunsettling
p1385
aVmuted
p1386
aVunrealized
p1387
aVcurrently
p1388
aVavuncular
p1389
aVpickup
p1390
aVacidic
p1391
aVdilutes
p1392
aVnope
p1393
aV15th
p1394
aVknowing
p1395
aVpremises
p1396
aVaggie
p1397
aVempowering
p1398
aVunapologetic
p1399
aVlast
p1400
aVinfluential
p1401
aVbarely
p1402
aVimproves
p1403
aVretarded
p1404
aVcinemantic
p1405
aVapprove
p1406
aVhealing
p1407
aVdrunk
p1408
aVacted
p1409
aVsmashing
p1410
aVdimensional
p1411
aVfrosty
p1412
aVchurch
p1413
aVtonto
p1414
aVunderlay
p1415
aVworthless
p1416
aVcorcuera
p1417
aVcheeked
p1418
aVimplicit
p1419
aVhitting
p1420
aVcontentedly
p1421
aVextravagant
p1422
aVthewlis
p1423
aVdifficultries
p1424
aVstoopid
p1425
aVchampion
p1426
aVfire
p1427
aVraces
p1428
aVawake
p1429
aVuntrained
p1430
aVflashing
p1431
aVtweaked
p1432
aVhandling
p1433
aVuncertain
p1434
aVslyly
p1435
aVgeeked
p1436
aVreliable
p1437
aVexpanded
p1438
aVadmire
p1439
aVreceive
p1440
aVpatthaa
p1441
aVpressed
p1442
aVkissing
p1443
aVdi
p1444
aVrobin
p1445
aVswim
p1446
aVhoping
p1447
aVtriple
p1448
aVbeautifully
p1449
aVchase
p1450
aVkinetically
p1451
aVfunny
p1452
aVsounding
p1453
aVchoking
p1454
aVacaba
p1455
aVonscreen
p1456
aVelevated
p1457
aVchatani
p1458
aVshorter
p1459
aVnumbnuts
p1460
aVvirtually
p1461
aVelevates
p1462
aVcumgif
p1463
aVcomprehensive
p1464
aVcrystallize
p1465
aValert
p1466
aVdemerjian
p1467
aVviewing
p1468
aVleaps
p1469
aVrecent
p1470
aVearly
p1471
aVoddest
p1472
aVpicky
p1473
aVconcrete
p1474
aVcockish
p1475
aVcomprise
p1476
aVresponsible
p1477
aVdetract
p1478
aVramshackle
p1479
aVbefuddled
p1480
aVtennis
p1481
aVamp
p1482
aVcrackles
p1483
aVorby
p1484
aVsurprises
p1485
aVsnappy
p1486
aVcrying
p1487
aVcomprehensible
p1488
aVinstructs
p1489
aVsurprised
p1490
aVdefiantly
p1491
aVtomas
p1492
aVaustralia
p1493
aVformat
p1494
aVcouple
p1495
aVselfish
p1496
aVshitty
p1497
aVsuffering
p1498
aVquest
p1499
aVabound
p1500
aVnationalist
p1501
aVshading
p1502
aVentrenched
p1503
aVkhus
p1504
aVformal
p1505
aVpertinent
p1506
aVd
p1507
aVspine
p1508
aVkennedy
p1509
aVcontinue
p1510
aViphone7
p1511
aVstylish
p1512
aValexandre
p1513
aVmelville
p1514
aVirresistibly
p1515
aVpixilated
p1516
aVspring
p1517
aVb4
p1518
aVsighs
p1519
aVlacerates
p1520
aVunderbelly
p1521
aVcurious
p1522
aVpale
p1523
aVirresistible
p1524
aVbenefit
p1525
aVbehave
p1526
aVdating
p1527
aVbe
p1528
aVidealistic
p1529
aVforming
p1530
aVbu
p1531
aVnowhere
p1532
aVsanta
p1533
aVrelating
p1534
aVdiscontented
p1535
aVdeserved
p1536
aVdisjointed
p1537
aVexaggerated
p1538
aVdeserves
p1539
aVirrigates
p1540
aVbiennial
p1541
aVstuart
p1542
aVgonorrhoea
p1543
aVgarbage
p1544
aVdisturbingly
p1545
aVappropriate
p1546
aVprimarily
p1547
aVnext
p1548
aVchirping
p1549
aVunnerving
p1550
aVspam
p1551
aVmythic
p1552
aVspac
p1553
aVsock
p1554
aVsneaks
p1555
aVspecifically
p1556
aVopens
p1557
aVconsiderably
p1558
aVlitigate
p1559
aVhawaiian
p1560
aVjewish
p1561
aVrelaxed
p1562
aVvowing
p1563
aVundeserving
p1564
aVatlantic
p1565
aVconsiderable
p1566
aVposted
p1567
aVredeemed
p1568
aVup
p1569
aVur
p1570
aVum
p1571
aVun
p1572
aVuk
p1573
aVfaded
p1574
aVhorner
p1575
aVconsumed
p1576
aVub
p1577
aVgenial
p1578
aVaerial
p1579
aVbutthead
p1580
aVchad
p1581
aVdefined
p1582
aVnighttime
p1583
aVinfluence
p1584
aVconsigned
p1585
aVdiverse
p1586
aVchat
p1587
aVgraceful
p1588
aVdefines
p1589
aVintrepid
p1590
aVpuzzling
p1591
aVoccasional
p1592
aVpoints
p1593
aVsorcerer
p1594
aVenergetic
p1595
aVsided
p1596
aVdisarming
p1597
aVago
p1598
aVlane
p1599
aVland
p1600
aVreasoned
p1601
aVwalked
p1602
aVharks
p1603
aVfresh
p1604
aVhaving
p1605
aVpartial
p1606
aVillustrates
p1607
aVscooped
p1608
aVscratch
p1609
aVsplashing
p1610
aVenjoyably
p1611
aVexisting
p1612
aVillustrated
p1613
aVrenown
p1614
aVstops
p1615
aVbroader
p1616
aVfreakin
p1617
aVamiss
p1618
aVbomb
p1619
aVflashback
p1620
aVseemed
p1621
aVglows
p1622
aVconcerned
p1623
aVyoung
p1624
aVsend
p1625
aVworkaday
p1626
aVprobully
p1627
aVkapur
p1628
aVsent
p1629
aVcontinues
p1630
aVsexdating
p1631
aVprecinct
p1632
aVcontinued
p1633
aVwipe
p1634
aVtimely
p1635
aVmagic
p1636
aVmarry
p1637
aVdamning
p1638
aVanxious
p1639
aVtrite
p1640
aVuel
p1641
aVtunisian
p1642
aVimply
p1643
aVdualistic
p1644
aVvideo
p1645
aVlmica
p1646
aVodd
p1647
aVreinvented
p1648
aVkhajana
p1649
aVexpressed
p1650
aVconsistently
p1651
aVaground
p1652
aVpolluting
p1653
aVflowing
p1654
aVexpresses
p1655
aVdelving
p1656
aVbird
p1657
aVscenery
p1658
aVcringing
p1659
aVled
p1660
aVlee
p1661
aVeminently
p1662
aVleg
p1663
aVpunch
p1664
aVdelivering
p1665
aVallying
p1666
aVles
p1667
aVlet
p1668
aVsquirming
p1669
aVinvented
p1670
aVtalanc
p1671
aVgreat
p1672
aVengage
p1673
aVcredits
p1674
aVtechnical
p1675
aVinvolved
p1676
aVartic
p1677
aVdefeat
p1678
aVpopcorn
p1679
aVmakes
p1680
aVinvolves
p1681
aVthats
p1682
aVcuckold
p1683
aVsienna
p1684
aVequals
p1685
aVlucratively
p1686
aVfrustratedindian
p1687
aVstanding
p1688
aVcheered
p1689
aVrecalling
p1690
aVillegal
p1691
aVwhipping
p1692
aVthrow
p1693
aVfigurative
p1694
aVeleven
p1695
aVdoubt
p1696
aVdisappointingly
p1697
aVhumorless
p1698
aVrick
p1699
aVdebauched
p1700
aVbabe
p1701
aVstabbing
p1702
aVinfamy
p1703
aVon
p1704
aVbodily
p1705
aVcarrying
p1706
aVsharply
p1707
aVbaby
p1708
aVchod
p1709
aVpayrolls
p1710
aVbhaag
p1711
aVballs
p1712
aVjettisoned
p1713
aVintegrating
p1714
aVthis
p1715
aVchallenge
p1716
aVinsists
p1717
aVpour
p1718
aVthin
p1719
aVdrill
p1720
aVfulfill
p1721
aVslid
p1722
aVstreamed
p1723
aVlock
p1724
aVtrumped
p1725
aVpromotional
p1726
aVhigh
p1727
aVbend
p1728
aVslip
p1729
aVmartyr
p1730
aVbolstered
p1731
aVengagingly
p1732
aVeducational
p1733
aVdestroying
p1734
aVlusted
p1735
aVanimal
p1736
aVcomedy
p1737
aVintelligent
p1738
aVchou
p1739
aVabrasive
p1740
aVsingular
p1741
aVtied
p1742
aVreggio
p1743
aVdemonstrating
p1744
aVfits
p1745
aVties
p1746
aVgags
p1747
aVrealized
p1748
aVrepresentando
p1749
aVcounter
p1750
aVrobot
p1751
aVredundant
p1752
aVrealizes
p1753
aVallow
p1754
aVclassy
p1755
aVpresuppose
p1756
aVclarissa
p1757
aVboxing
p1758
aVkittenish
p1759
aVwaltzed
p1760
aVproduces
p1761
aVmove
p1762
aVcommy
p1763
aVproduced
p1764
aVdirects
p1765
aVoperative
p1766
aVperfect
p1767
aVstupidass
p1768
aVrecreating
p1769
aVdrumline
p1770
aVderivative
p1771
aVarchival
p1772
aVvocalized
p1773
aVinsistent
p1774
aVship
p1775
aVdocu
p1776
aVmitigated
p1777
aVlegendary
p1778
aVrealize
p1779
aVminimalist
p1780
aVwallowing
p1781
aVtraced
p1782
aVaccompanies
p1783
aVsniffing
p1784
aVsufficiently
p1785
aVdelightful
p1786
aVdenzel
p1787
aVbetty
p1788
aVtruth
p1789
aVprincesses
p1790
aVbeneath
p1791
aVenigmatic
p1792
aVyellowish
p1793
aVdoing
p1794
aVclaustrophic
p1795
aVstatic
p1796
aVthirteen
p1797
aVbanal
p1798
aVtenth
p1799
aVwander
p1800
aVwitness
p1801
aVhuck
p1802
aVfundamentally
p1803
aVborderline
p1804
aVrigging
p1805
aVaspiring
p1806
aVmonumental
p1807
aVnarratively
p1808
aVsuperbly
p1809
aVhilarious
p1810
aVunprepared
p1811
aVburke
p1812
aVshut
p1813
aVunwieldy
p1814
aVjackasses
p1815
aVgreedy
p1816
aVrandwa
p1817
aVsurely
p1818
aVtempt
p1819
aVembarrass
p1820
aVsteering
p1821
aVgodfrey
p1822
aVscary
p1823
aVspill
p1824
aVlatches
p1825
aVcompulsive
p1826
aVskippy
p1827
aVdavid
p1828
aVchilly
p1829
aVdavis
p1830
aVchills
p1831
aVrelays
p1832
aVstimulate
p1833
aVstaggered
p1834
aVkhana
p1835
aVreflexive
p1836
aVethical
p1837
aVblew
p1838
aVowned
p1839
aVstraining
p1840
aVlol
p1841
aVblows
p1842
aVlolita
p1843
aVbuoyed
p1844
aVlegislative
p1845
aVdeceptive
p1846
aVtetero
p1847
aVfestival
p1848
aVbehaves
p1849
aVdetailing
p1850
aVexhilarating
p1851
aVefficiently
p1852
aVbehaved
p1853
aVpainful
p1854
aVstomach
p1855
aVdepressing
p1856
aVmuther
p1857
aVelite
p1858
aVhaven
p1859
aVorchestrates
p1860
aVegregious
p1861
aVbother
p1862
aVroberto
p1863
aVextraordinarily
p1864
aVtortured
p1865
aVappealing
p1866
aVorchestrated
p1867
aVsugest
p1868
aVgays
p1869
aVsteer
p1870
aVingenious
p1871
aVfalse
p1872
aVbeggar
p1873
aVviewer
p1874
aVintriguingly
p1875
aVgently
p1876
aVreassuring
p1877
aVtonight
p1878
aVgentle
p1879
aVdefending
p1880
aVponders
p1881
aVclearly
p1882
aVviewed
p1883
aVmountainous
p1884
aVlilo
p1885
aVawed
p1886
aVdished
p1887
aVbabes
p1888
aVarliss
p1889
aVkorean
p1890
aVseductive
p1891
aVscooping
p1892
aVtoughest
p1893
aVdoug
p1894
aVunobtrusively
p1895
aVsophomoric
p1896
aValtman
p1897
aVmisogynistic
p1898
aVhypocrite
p1899
aVignites
p1900
aVparisian
p1901
aVbred
p1902
aVstronger
p1903
aVface
p1904
aVsodomized
p1905
aVmakkhi
p1906
aVinnocent
p1907
aVmaddeningly
p1908
aVpainting
p1909
aVerasing
p1910
aVatmosphere
p1911
aVentertain
p1912
aVwoolly
p1913
aVbring
p1914
aVdbz
p1915
aVrough
p1916
aVtrivial
p1917
aVprincipal
p1918
aVtaps
p1919
aVpause
p1920
aVnoir
p1921
aVknotting
p1922
aVshould
p1923
aVplanted
p1924
aVriding
p1925
aVwillams
p1926
aVhope
p1927
aVmeant
p1928
aVlucks
p1929
aVfamiliar
p1930
aVsimplest
p1931
aVcranky
p1932
aVlucky
p1933
aVscorn
p1934
aVfamilial
p1935
aVshaping
p1936
aVsmugs
p1937
aVh
p1938
aVstuff
p1939
aVstreamlined
p1940
aVtaxed
p1941
aVexude
p1942
aVincurably
p1943
aVguessing
p1944
aVcatastrophic
p1945
aVtravis
p1946
aVskateboarding
p1947
aVpacked
p1948
aVmcgrath
p1949
aVinteracting
p1950
aVinsulting
p1951
aVnuclear
p1952
aVhorny
p1953
aVfooker
p1954
aVmelrose
p1955
aVends
p1956
aVexplosive
p1957
aVdogging
p1958
aVthornberrys
p1959
aVstaring
p1960
aVfigured
p1961
aVdrum
p1962
aVunflinching
p1963
aVapted
p1964
aVinvited
p1965
aVetc
p1966
aVfigures
p1967
aVtrumps
p1968
aVinvites
p1969
aVck
p1970
aVco
p1971
aVlaude
p1972
aVcrafted
p1973
aVobservaci
p1974
aVpowered
p1975
aVelmer
p1976
aVdazzling
p1977
aVwonderous
p1978
aVkahn
p1979
aVenlivens
p1980
aVfrighten
p1981
aVutilizing
p1982
aVwaste
p1983
aVrevives
p1984
aVhomosexual
p1985
aVrioting
p1986
aVnunary
p1987
aVhateful
p1988
aVmuslims
p1989
aVfreewheeling
p1990
aVtoothless
p1991
aVlecherous
p1992
aVcumonboobs
p1993
aVsleezy
p1994
aVpretentious
p1995
aVgrinning
p1996
aVmooth
p1997
aVrigged
p1998
aVultra
p1999
aVglobalizing
p2000
aVve
p2001
aVinsanely
p2002
aVlush
p2003
aVsurprisingly
p2004
aVrips
p2005
aVvs
p2006
aVoptimistic
p2007
aVsits
p2008
aVimpervious
p2009
aVunforgivingly
p2010
aVtattoo
p2011
aVostentatious
p2012
aVdenial
p2013
aVjuan
p2014
aVfashioning
p2015
aVhighlighted
p2016
aVpainstaking
p2017
aVdigging
p2018
aVandroid
p2019
aVunimaginable
p2020
aVdush
p2021
aVsade
p2022
aVemotionally
p2023
aVdrink
p2024
aVchaiken
p2025
aVnationally
p2026
aVinfinite
p2027
aVikea
p2028
aVafghan
p2029
aVexpand
p2030
aVpleasantly
p2031
aVoff
p2032
aVfascinate
p2033
aVcolour
p2034
aVphat
p2035
aVpatterns
p2036
aVoft
p2037
aVlavada
p2038
aVdrawing
p2039
aVkiss
p2040
aVless
p2041
aVdas
p2042
aVglum
p2043
aVmomento
p2044
aVpredicts
p2045
aVbuggered
p2046
aVpaul
p2047
aVgenerous
p2048
aVuncommercial
p2049
aVwen
p2050
aVarrest
p2051
aVcombine
p2052
aVwet
p2053
aVmannered
p2054
aVscoundrel
p2055
aVfluctuating
p2056
aVincreased
p2057
aVmagnify
p2058
aVchecking
p2059
aVpassable
p2060
aVteambi
p2061
aVyou
p2062
aVcrisp
p2063
aVcretinous
p2064
aVnerved
p2065
aVslathered
p2066
aVflickering
p2067
aVbecome
p2068
aVinexperienced
p2069
aVtherapeutic
p2070
aVsurest
p2071
aVphool
p2072
aVimmortal
p2073
aVfugate
p2074
aVchoosing
p2075
aVelitist
p2076
aVcrudely
p2077
aVhumming
p2078
aVgainsbourg
p2079
aVseesawed
p2080
aVjurbinsky
p2081
aVliterally
p2082
aVavoid
p2083
aVpellington
p2084
aVanguished
p2085
aVreferential
p2086
aVdoes
p2087
aVtruffle
p2088
aVsacramental
p2089
aVslower
p2090
aVblowing
p2091
aVzips
p2092
aVentertainingly
p2093
aVhiding
p2094
aVdrumming
p2095
aVlifestyle
p2096
aVasks
p2097
aVcomputerized
p2098
aVmerited
p2099
aVkhau
p2100
aVseedy
p2101
aVclooney
p2102
aVdocumentary
p2103
aVswimming
p2104
aVhanding
p2105
aVpati
p2106
aVjingles
p2107
aVbooed
p2108
aVcatherine
p2109
aVgetting
p2110
aVscreamed
p2111
aVtwatted
p2112
aVerect
p2113
aVhubert
p2114
aVcultivated
p2115
aVmera
p2116
aVcrooked
p2117
aVmere
p2118
aVsanded
p2119
aVtroubling
p2120
aVditsy
p2121
aVindoctrinated
p2122
aVnaturally
p2123
aVrhythmic
p2124
aVbuilding
p2125
aVyarns
p2126
aVoverlapping
p2127
aVlowered
p2128
aVdelivers
p2129
aVapollo
p2130
aVcount
p2131
aVtossed
p2132
aVevident
p2133
aVgravitational
p2134
aVofficial
p2135
aVsmooth
p2136
aVtriumphant
p2137
aVexcitement
p2138
aVplaced
p2139
aVconvince
p2140
aVbearing
p2141
aVirish
p2142
aVrightly
p2143
aVrecognize
p2144
aVcontribute
p2145
aVsibling
p2146
aVunsavory
p2147
aVing
p2148
aVjesse
p2149
aVeffected
p2150
aVexhausting
p2151
aVrenowned
p2152
aVcompared
p2153
aVnonetheless
p2154
aVdeadly
p2155
aVlately
p2156
aVcompares
p2157
aVoverwhelms
p2158
aVreckless
p2159
aVfrancisco
p2160
aVmonday
p2161
aVdismantle
p2162
aVbaffling
p2163
aVinvolvingly
p2164
aVrepeal
p2165
aVvein
p2166
aVeyre
p2167
aVpandering
p2168
aVvillainous
p2169
aVrural
p2170
aVunspeakable
p2171
aVbuoy
p2172
aVclamoring
p2173
aVmagnetic
p2174
aVsaves
p2175
aVdesirable
p2176
aVbc
p2177
aVcontroversial
p2178
aVsaved
p2179
aVpsychopathic
p2180
aVporno
p2181
aVedward
p2182
aVvoted
p2183
aVregal
p2184
aVregan
p2185
aVworth
p2186
aValternating
p2187
aVamorous
p2188
aVunconned
p2189
aVdistort
p2190
aVmanic
p2191
aVpaseene
p2192
aVsuccumbing
p2193
aVdetoxed
p2194
aVcompassionately
p2195
aVrelentlessly
p2196
aVsamurai
p2197
aVred
p2198
aVundercover
p2199
aVtriumph
p2200
aVchew
p2201
aVdiverting
p2202
aVphones
p2203
aVrigorous
p2204
aVestablished
p2205
aVdeliberate
p2206
aVfessenden
p2207
aVmisconstrued
p2208
aVirrevocable
p2209
aVestablishes
p2210
aVscumbag
p2211
aVsuppose
p2212
aVtold
p2213
aVelfriede
p2214
aVsimultaneously
p2215
aVsinks
p2216
aVrevels
p2217
aVspunky
p2218
aVkindred
p2219
aVrichest
p2220
aVpersonified
p2221
aVdaughter
p2222
aVrigorously
p2223
aVstudy
p2224
aVkurys
p2225
aVcogent
p2226
aVsmoke
p2227
aVaka
p2228
aVpledged
p2229
aVsmoochy
p2230
aVenvious
p2231
aVspooky
p2232
aVcharred
p2233
aVhighly
p2234
aVmodulated
p2235
aVcompulsively
p2236
aVtaymor
p2237
aVtotal
p2238
aVp0rn
p2239
aVpalestinian
p2240
aVnegative
p2241
aVcraving
p2242
aVindiana
p2243
aVatypically
p2244
aVabusing
p2245
aVfragmentary
p2246
aVhaha
p2247
aVaware
p2248
aVescapist
p2249
aVsobering
p2250
aVsecular
p2251
aVfistfucked
p2252
aVseparates
p2253
aVcontinual
p2254
aVadamant
p2255
aVstriving
p2256
aVauthentically
p2257
aVwore
p2258
aVthanks
p2259
aVpermits
p2260
aVwork
p2261
aVeclipse
p2262
aVrefusing
p2263
aVcuddly
p2264
aVelbow
p2265
aVelegantly
p2266
aVscripting
p2267
aVindicated
p2268
aVquivering
p2269
aVindie
p2270
aVindia
p2271
aVimpair
p2272
aVindicates
p2273
aVfanciful
p2274
aVvalidated
p2275
aVstr8
p2276
aVprovide
p2277
aVnuts
p2278
aVshakin
p2279
aVzings
p2280
aVmoron
p2281
aVdisappoint
p2282
aVordinary
p2283
aVoperatic
p2284
aVtruthful
p2285
aVticked
p2286
aVlan
p2287
aVxrated
p2288
aVearlier
p2289
aVdamaged
p2290
aVbared
p2291
aVlay
p2292
aVlau
p2293
aVdumbo
p2294
aVmeaningful
p2295
aVwildean
p2296
aVchilled
p2297
aVelusive
p2298
aVpadre
p2299
aValienate
p2300
aVappreciate
p2301
aVscare
p2302
aVgreek
p2303
aVgreen
p2304
aVangelique
p2305
aVrealizing
p2306
aVgreed
p2307
aVcumulative
p2308
aVinfested
p2309
aVhardhearted
p2310
aVdirtiest
p2311
aVsatisfied
p2312
aVnsfw
p2313
aVinnovative
p2314
aVjapan
p2315
aVsatisfies
p2316
aVchronically
p2317
aVpatronized
p2318
aVbombing
p2319
aVgoldbacher
p2320
aVsomewhere
p2321
aVblown
p2322
aVbefallen
p2323
aVdenver
p2324
aVunderstated
p2325
aVworkable
p2326
aVsavory
p2327
aVprecipitate
p2328
aVversus
p2329
aVthen
p2330
aVcoffee
p2331
aVaffected
p2332
aVwoken
p2333
aVjerking
p2334
aVsafe
p2335
aVcollide
p2336
aVbreak
p2337
aVbang
p2338
aVshameful
p2339
aVlifelong
p2340
aVboyhollow
p2341
aVwhoop
p2342
aVgermanic
p2343
aVrocky
p2344
aVrelishes
p2345
aVdoles
p2346
aVreasonably
p2347
aVclassified
p2348
aValternately
p2349
aVpsychoanalytical
p2350
aVrocks
p2351
aVreasonable
p2352
aVfeeds
p2353
aVlifted
p2354
aVmeets
p2355
aVdumping
p2356
aVcrimes
p2357
aVrecognizable
p2358
aVwhining
p2359
aVhooked
p2360
aVtolerated
p2361
aVfellowship
p2362
aVfudging
p2363
aVhogan
p2364
aVmeatier
p2365
aVachival
p2366
aVstandard
p2367
aVadmits
p2368
aVfervid
p2369
aVtechno
p2370
aVdege
p2371
aVenlightened
p2372
aVcertified
p2373
aVmonkey
p2374
aVincorporates
p2375
aVdoublefacial
p2376
aVstaggers
p2377
aVunfulfilled
p2378
aVcreated
p2379
aVrefugee
p2380
aVcreates
p2381
aVflawless
p2382
aVlicked
p2383
aVoppose
p2384
aVregress
p2385
aVquirkiness
p2386
aVteh
p2387
aVdaunting
p2388
aVfuckers
p2389
aVcrooning
p2390
aVdelicious
p2391
aVthoughtfully
p2392
aVcomic
p2393
aVillustrate
p2394
aVrated
p2395
aVrejects
p2396
aVplentiful
p2397
aVairs
p2398
aVcompromise
p2399
aVairy
p2400
aVpurposefully
p2401
aVjohn
p2402
aVdamaging
p2403
aVfanatical
p2404
aVhappily
p2405
aVrejected
p2406
aVembroils
p2407
aVnahi
p2408
aVwasted
p2409
aVromp
p2410
aVunexplainable
p2411
aVseated
p2412
aVgodard
p2413
aVmerci
p2414
aVunmistakably
p2415
aVguilt
p2416
aVhistorical
p2417
aVtackled
p2418
aVdevious
p2419
aVsolely
p2420
aVrespecting
p2421
aVnavigate
p2422
aVflavorful
p2423
aVrefreshingly
p2424
aVhavew
p2425
aVforced
p2426
aVponder
p2427
aVgenuine
p2428
aVwiden
p2429
aVladen
p2430
aVlatter
p2431
aVrealy
p2432
aVforces
p2433
aVswims
p2434
aVgravy
p2435
aVbruce
p2436
aVcaustic
p2437
aVdreary
p2438
aVextending
p2439
aVinvolving
p2440
aVgermany
p2441
aVpremoted
p2442
aVcalculated
p2443
aVwitnessed
p2444
aVhanni
p2445
aVdemoralized
p2446
aVunsophisticated
p2447
aVvoting
p2448
aVresponded
p2449
aVdecidedly
p2450
aVsilberstein
p2451
aVsubtly
p2452
aVteetering
p2453
aVlewis
p2454
aVprecarious
p2455
aVanniversary
p2456
aVserenely
p2457
aVsubtle
p2458
aVenjoyed
p2459
aVtoast
p2460
aVpainfully
p2461
aVhavas
p2462
aVdeepest
p2463
aVwizened
p2464
aVadequate
p2465
aVwarmest
p2466
aVidi0t
p2467
aVdo
p2468
aVdm
p2469
aVmcshay
p2470
aVloved
p2471
aVde
p2472
aVforsaken
p2473
aVgored
p2474
aVhaunted
p2475
aVdeliberative
p2476
aVhappiest
p2477
aVheadlong
p2478
aVachronological
p2479
aVruns
p2480
aVemo
p2481
aVhumanist
p2482
aVanalytical
p2483
aVwannabe
p2484
aVsteal
p2485
aVgaya
p2486
aVadumbas
p2487
aVmiserably
p2488
aVobserves
p2489
aVdisorientated
p2490
aVobserved
p2491
aVdepends
p2492
aVmiserable
p2493
aVdraws
p2494
aVaway
p2495
aVafloat
p2496
aVcaved
p2497
aVportrayed
p2498
aVovergrown
p2499
aVunable
p2500
aVarcane
p2501
aVsprecher
p2502
aVdrawn
p2503
aVmisguided
p2504
aVburkinabe
p2505
aVnicolas
p2506
aVrudimentary
p2507
aVww
p2508
aVenters
p2509
aVsuccumbs
p2510
aVcop
p2511
aVessentially
p2512
aVcow
p2513
aVill
p2514
aVdidactic
p2515
aVexceeds
p2516
aVdisappears
p2517
aVtough
p2518
aVdimwitted
p2519
aVcondescending
p2520
aVstillborn
p2521
aVmarring
p2522
aVtony
p2523
aVfrenetic
p2524
aVguid
p2525
aVspeak
p2526
aVunhappily
p2527
aVcharisma
p2528
aVflexible
p2529
aVwarmth
p2530
aVrepelled
p2531
aVeasy
p2532
aVrelaxing
p2533
aVattacked
p2534
aVichi
p2535
aVfest
p2536
aVsexting
p2537
aVpostmodern
p2538
aVgracious
p2539
aVapplied
p2540
aVphysician
p2541
aVeast
p2542
aVhat
p2543
aVain
p2544
aVentertains
p2545
aVcathartic
p2546
aVcharacterizing
p2547
aVmistake
p2548
aVstink
p2549
aVwhine
p2550
aVdumped
p2551
aVsting
p2552
aVcone
p2553
aVcomparative
p2554
aVwarthog
p2555
aVirvine
p2556
aVconfirmed
p2557
aVgrandiose
p2558
aVpatent
p2559
aVimbued
p2560
aVdescend
p2561
aVavoids
p2562
aVindictment
p2563
aVadvertising
p2564
aVindependent
p2565
aVnin
p2566
aVfuss
p2567
aVspringing
p2568
aVnic
p2569
aVhang
p2570
aVevil
p2571
aVnorwegian
p2572
aVdepict
p2573
aVredneck
p2574
aVselfless
p2575
aVcrushingly
p2576
aVexudes
p2577
aVmil
p2578
aVkept
p2579
aVthy
p2580
aVhumble
p2581
aVragged
p2582
aVhispanic
p2583
aVcontact
p2584
aVmusical
p2585
aVdipshit
p2586
aVsolaris
p2587
aVathletic
p2588
aVnewton
p2589
aVquintessential
p2590
aVjose
p2591
aVshoud
p2592
aVposes
p2593
aVjosh
p2594
aVhilly
p2595
aVpassive
p2596
aVshout
p2597
aVbelongs
p2598
aVchides
p2599
aVrequiring
p2600
aVphotographed
p2601
aVharmoniously
p2602
aVsmokiung
p2603
aVarab
p2604
aVboxes
p2605
aVprogresses
p2606
aVgrenoble
p2607
aVnwhy
p2608
aVskanky
p2609
aVeuphoric
p2610
aVhogs
p2611
aVlily
p2612
aVvaysay
p2613
aVtebow
p2614
aVfarcically
p2615
aVinvaluable
p2616
aVrevisiting
p2617
aVsoar
p2618
aVaimed
p2619
aVportuguese
p2620
aVhonored
p2621
aVkorea
p2622
aVsends
p2623
aVborn
p2624
aVkieslowski
p2625
aVbore
p2626
aVconfusing
p2627
aVadorably
p2628
aVpurple
p2629
aVphenomenal
p2630
aVspawned
p2631
aVmulls
p2632
aVfilming
p2633
aVasking
p2634
aVdenied
p2635
aVbeating
p2636
aVadorable
p2637
aVpeek
p2638
aVsensationalism
p2639
aVpose
p2640
aVplz
p2641
aVarchitectural
p2642
aVgraduated
p2643
aVteatral
p2644
aVpost
p2645
aVflinching
p2646
aVforeskin
p2647
aVimpenetrable
p2648
aVtheirs
p2649
aVcoral
p2650
aVaccepts
p2651
aVsizzling
p2652
aVanime
p2653
aVcherish
p2654
aVwasting
p2655
aVpays
p2656
aVfloat
p2657
aVbound
p2658
aVbalances
p2659
aVformidable
p2660
aVbalanced
p2661
aVcroaks
p2662
aVstumble
p2663
aVallways
p2664
aVstrangely
p2665
aVwan
p2666
aVamidst
p2667
aVheheh
p2668
aVundiscovered
p2669
aVavailable
p2670
aVoverblown
p2671
aVfight
p2672
aVclinical
p2673
aVwax
p2674
aVquirky
p2675
aVwas
p2676
aVlowest
p2677
aVbecoming
p2678
aVtaken
p2679
aVtestical
p2680
aVbedevils
p2681
aVtrue
p2682
aVnationwide
p2683
aVresponding
p2684
aVveiled
p2685
aVdigraced
p2686
aVinvincible
p2687
aVbaingan
p2688
aVmtv
p2689
aVmaximum
p2690
aVfrustindian
p2691
aVattuned
p2692
aVcrystal
p2693
aVanew
p2694
aVemotional
p2695
aVpixar
p2696
aVenthusiastic
p2697
aVseaworthy
p2698
aVpromises
p2699
aVhotter
p2700
aVmoore
p2701
aVmetaphysical
p2702
aVabstract
p2703
aVhowling
p2704
aVguessed
p2705
aVmoll
p2706
aVpromised
p2707
aVwintry
p2708
aVarchive
p2709
aVphysical
p2710
aVmuskaan
p2711
aVdying
p2712
aVejected
p2713
aVformulaic
p2714
aVinterested
p2715
aVwollter
p2716
aVholding
p2717
aVscored
p2718
aVuntidily
p2719
aVwelcome
p2720
aVconvincing
p2721
aVupdate
p2722
aVbelive
p2723
aVmusty
p2724
aVnotting
p2725
aVscores
p2726
aVjuiced
p2727
aVcheated
p2728
aVtogether
p2729
aVloyal
p2730
aVpaced
p2731
aVstick
p2732
aVconcept
p2733
aVimpulse
p2734
aVu4enei
p2735
aVdance
p2736
aVwafsha
p2737
aVswitches
p2738
aVsupplement
p2739
aVgrateful
p2740
aVcreative
p2741
aVtoothpick
p2742
aVidealism
p2743
aVcontributing
p2744
aVcertainly
p2745
aVejaculated
p2746
aVaristocratic
p2747
aVcompensate
p2748
aVrhythm
p2749
aVextols
p2750
aVbrown
p2751
aVprotective
p2752
aVseemingly
p2753
aVmarxian
p2754
aVrending
p2755
aVanonymous
p2756
aVaaaaah
p2757
aVairing
p2758
aVovercook
p2759
aVgoofiest
p2760
aVmargarita
p2761
aVaggressively
p2762
aVperceived
p2763
aVfoo
p2764
aVpresented
p2765
aValtering
p2766
aVturns
p2767
aVfragile
p2768
aVsuprised
p2769
aVinappropriate
p2770
aVp
p2771
aVsoooo
p2772
aVq
p2773
aVgut
p2774
aVwoven
p2775
aVupper
p2776
aVbrave
p2777
aVlegalized
p2778
aVregret
p2779
aVpenetrates
p2780
aVrepetitive
p2781
aVdiscover
p2782
aVcost
p2783
aVpenetrated
p2784
aVenticing
p2785
aVcurse
p2786
aVappear
p2787
aVapuestas
p2788
aVpleasingly
p2789
aVpeels
p2790
aVpulsating
p2791
aVshared
p2792
aVappeal
p2793
aVsatisfy
p2794
aVsupporting
p2795
aVfrothing
p2796
aVlolling
p2797
aVgawk
p2798
aVbielinsky
p2799
aVcommunism
p2800
aVlustrous
p2801
aVroaring
p2802
aVappears
p2803
aVchange
p2804
aVigby
p2805
aVsending
p2806
aVexiting
p2807
aVbangs
p2808
aVusually
p2809
aVplotted
p2810
aVregardless
p2811
aVstarring
p2812
aVextra
p2813
aVlending
p2814
aVxa0clearly
p2815
aVmarked
p2816
aVuphill
p2817
aVsincerely
p2818
aVjolts
p2819
aVbuble
p2820
aVdiscrediting
p2821
aVnauseating
p2822
aVdisguising
p2823
aVprove
p2824
aVsenile
p2825
aVbury
p2826
aVangela
p2827
aVsymbolizes
p2828
aVlive
p2829
aVunadorned
p2830
aVwonderfully
p2831
aVofficiating
p2832
aVripening
p2833
aVintently
p2834
aVdramatizing
p2835
aVdenuded
p2836
aVfingered
p2837
aVenvelops
p2838
aVfumbled
p2839
aVgraphic
p2840
aVlacky
p2841
aVphucking
p2842
aVpurge
p2843
aVlabeled
p2844
aVcal
p2845
aVstimulating
p2846
aVspy
p2847
aVdedicated
p2848
aVpauses
p2849
aVexpanding
p2850
aVheard
p2851
aVbichhake
p2852
aVchin
p2853
aVoccur
p2854
aVunwavering
p2855
aVovermanipulative
p2856
aVfortunately
p2857
aVexceptional
p2858
aVwrite
p2859
aVstrays
p2860
aVseldahl
p2861
aVspielberg
p2862
aVdampened
p2863
aVhypnotically
p2864
aVsouthern
p2865
aVdisgusted
p2866
aVproduce
p2867
aVwistful
p2868
aVdrastic
p2869
aVendgame
p2870
aVdahmer
p2871
aVflourish
p2872
aVremember
p2873
aVbreakingly
p2874
aVexplicit
p2875
aVaccelerated
p2876
aVoffend
p2877
aVidiosyncratic
p2878
aVtypical
p2879
aVserving
p2880
aVindeed
p2881
aVhaircut
p2882
aVdisplayed
p2883
aVaffectingly
p2884
aVplayful
p2885
aVended
p2886
aVratified
p2887
aVaffirms
p2888
aVwhats
p2889
aVcold
p2890
aVstill
p2891
aVno1
p2892
aVreacting
p2893
aVcurls
p2894
aVinflicted
p2895
aVlibturd
p2896
aVnon
p2897
aVdisparate
p2898
aVrake
p2899
aVintroduce
p2900
aVadrenaline
p2901
aVhalf
p2902
aVnot
p2903
aVritchie
p2904
aVnow
p2905
aVwont
p2906
aVlier
p2907
aVdrop
p2908
aVintrigued
p2909
aVwong
p2910
aVentirely
p2911
aVem
p2912
aVel
p2913
aVpoetically
p2914
aVsignificantly
p2915
aVek
p2916
aVchallenged
p2917
aVkang
p2918
aVstooping
p2919
aVdirecting
p2920
aVyeah
p2921
aVchallenges
p2922
aVex
p2923
aVeu
p2924
aVet
p2925
aVhappen
p2926
aVcalling
p2927
aVes
p2928
aVtried
p2929
aValbum
p2930
aVshown
p2931
aVaccomplish
p2932
aVopened
p2933
aVamateurishly
p2934
aVmaraa
p2935
aVlooking
p2936
aVshowy
p2937
aVstallone
p2938
aVruinous
p2939
aVviable
p2940
aVshows
p2941
aVshithead
p2942
aVinsular
p2943
aVcary
p2944
aVthong
p2945
aVbhadwe
p2946
aVaged
p2947
aVvirtuoso
p2948
aVjaglom
p2949
aVcomfronting
p2950
aVrebel
p2951
aVcarl
p2952
aVglosses
p2953
aVmarina
p2954
aVominous
p2955
aVinevitable
p2956
aVcare
p2957
aVfixed
p2958
aVcouldn
p2959
aVcoulda
p2960
aVtries
p2961
aVbritish
p2962
aVhonest
p2963
aVtangled
p2964
aVsurvivable
p2965
aVsupport
p2966
aVkitne
p2967
aVunsurprising
p2968
aVblind
p2969
aVinitial
p2970
aVimpossibly
p2971
aVstevens
p2972
aVunemotive
p2973
aVindecent
p2974
aVyourself
p2975
aVdirectly
p2976
aVgasp
p2977
aVimpossible
p2978
aVring
p2979
aVsheep
p2980
aVchecked
p2981
aVsilent
p2982
aVthankless
p2983
aVcallous
p2984
aVremotely
p2985
aVtragic
p2986
aVmegalomaniac
p2987
aVartless
p2988
aVmostly
p2989
aVlarky
p2990
aVbrains
p2991
aVappreciates
p2992
aVqual
p2993
aVunstinting
p2994
aVactuada
p2995
aVespect
p2996
aVpeck
p2997
aVappreciated
p2998
aVkeede
p2999
aVunderwritten
p3000
aVfoxworthy
p3001
aValmod
p3002
aVdissed
p3003
aVshyamalan
p3004
aVmovingly
p3005
aVmeticulous
p3006
aVsublime
p3007
aVcontentious
p3008
aVangel
p3009
aVcraig
p3010
aVpremier
p3011
aVslap
p3012
aVslam
p3013
aVdistorted
p3014
aVanger
p3015
aVsterilized
p3016
aVnuanced
p3017
aVveteran
p3018
aVovercoming
p3019
aVterrific
p3020
aVonline
p3021
aVobjective
p3022
aVbitching
p3023
aVbegin
p3024
aVprick
p3025
aVoppressive
p3026
aVcrafts
p3027
aVevaporate
p3028
aVintergalactic
p3029
aVimportantly
p3030
aVexpertly
p3031
aVholofcenter
p3032
aVamerica
p3033
aVmichelle
p3034
aVforever
p3035
aVsteady
p3036
aVwreaked
p3037
aVprofessional
p3038
aVschmaltzy
p3039
aVtypically
p3040
aVliterate
p3041
aVrundi
p3042
aVrambling
p3043
aVgerman
p3044
aVfifty
p3045
aVconcurs
p3046
aVresurrecting
p3047
aVcopyrighted
p3048
aVfifth
p3049
aVcrashing
p3050
aVblessedly
p3051
aVstained
p3052
aVjolt
p3053
aVtexture
p3054
aVonly
p3055
aVstuble
p3056
aVenriched
p3057
aVdaal
p3058
aVshrill
p3059
aVurine
p3060
aVtruly
p3061
aVcelebrate
p3062
aVbuilds
p3063
aVleather
p3064
aVseldom
p3065
aVsorrowfully
p3066
aVimbecile
p3067
aVbatshit
p3068
aVambling
p3069
aVempathizes
p3070
aVlayin
p3071
aVburst
p3072
aVphysically
p3073
aVstaged
p3074
aVanchored
p3075
aVelected
p3076
aVnamely
p3077
aVunfit
p3078
aVasleep
p3079
aVexcoriates
p3080
aVisraeli
p3081
aVnatsha
p3082
aVtackling
p3083
aVunapologetically
p3084
aVfascinated
p3085
aVrollicking
p3086
aVrephrase
p3087
aVskyscraper
p3088
aVauditioning
p3089
aVislam
p3090
aVfascinates
p3091
aVwhipped
p3092
aVnotice
p3093
aVgarde
p3094
aVblame
p3095
aVarmenian
p3096
aVhurts
p3097
aVteamuncut
p3098
aVdaddy
p3099
aVtalented
p3100
aVguffaw
p3101
aVcrisper
p3102
aVsusceptible
p3103
aVaura
p3104
aVcompetent
p3105
aVcomes
p3106
aVinvitingly
p3107
aVvibrantly
p3108
aVforeboding
p3109
aVinexplicable
p3110
aVexploit
p3111
aVlearning
p3112
aVliberal
p3113
aVfruitful
p3114
aVcharismatic
p3115
aVoliver
p3116
aVundercuts
p3117
aVlioness
p3118
aVcares
p3119
aVreenacting
p3120
aVinformed
p3121
aVcared
p3122
aVpunished
p3123
aVrotting
p3124
aVchuda
p3125
aVlmao
p3126
aVsisterhood
p3127
aVpatriarchal
p3128
aVelvis
p3129
aVlobber
p3130
aVempathy
p3131
aVsuspected
p3132
aVcountless
p3133
aVprehistoric
p3134
aVscarily
p3135
aVoffbeat
p3136
aVidealistically
p3137
aVscum
p3138
aVlundh
p3139
aVyi
p3140
aValcoholic
p3141
aVagnostic
p3142
aVassfuck
p3143
aVembrace
p3144
aVbestial
p3145
aVthrills
p3146
aVworry
p3147
aVdevelop
p3148
aVnarra
p3149
aVinnocently
p3150
aVwhyte
p3151
aVintelligently
p3152
aVpoetic
p3153
aVamiably
p3154
aVdocument
p3155
aVnoble
p3156
aVfinish
p3157
aVedifying
p3158
aVclosest
p3159
aVarctic
p3160
aVtezuka
p3161
aVbigoted
p3162
aVnah
p3163
aVringside
p3164
aVmentally
p3165
aVenchanting
p3166
aVpurer
p3167
aVbreezy
p3168
aVsevere
p3169
aVfidgeted
p3170
aVbettany
p3171
aVcharged
p3172
aVtossing
p3173
aVvaluable
p3174
aVshouts
p3175
aVcompromising
p3176
aVimparting
p3177
aVtouch
p3178
aVkouyate
p3179
aVintolerable
p3180
aVprovocatively
p3181
aVthinking
p3182
aVsenseless
p3183
aVwatchable
p3184
aVstruck
p3185
aVreal
p3186
aVambitious
p3187
aVspectacular
p3188
aVbryan
p3189
aVread
p3190
aVseamy
p3191
aVpaided
p3192
aVbasest
p3193
aVearnest
p3194
aVlistening
p3195
aVladr
p3196
aVusing
p3197
aVreap
p3198
aVruled
p3199
aVespectador
p3200
aVheightened
p3201
aVsuperfluous
p3202
aVcollective
p3203
aVengross
p3204
aVfeckless
p3205
aVt
p3206
aVharam
p3207
aVboneheaded
p3208
aVdownward
p3209
aVimmersing
p3210
aVverbal
p3211
aVexposed
p3212
aVunmentionable
p3213
aVexposes
p3214
aVeddie
p3215
aVsquirm
p3216
aVperverse
p3217
aVwillis
p3218
aVrecorded
p3219
aVconservative
p3220
aVethos
p3221
aVsarandon
p3222
aVbarris
p3223
aVassembly
p3224
aVsixth
p3225
aVequivalent
p3226
aVuneasy
p3227
aVassayas
p3228
aVexciting
p3229
aVdesiccated
p3230
aVcentral
p3231
aVsensuous
p3232
aVpaints
p3233
aVteamgay
p3234
aVboldly
p3235
aVescalating
p3236
aVchot
p3237
aVgreatly
p3238
aVwold
p3239
aVassassin
p3240
aVderanged
p3241
aVdaringly
p3242
aVfreeing
p3243
aVrediscovering
p3244
aVyoud
p3245
aVchild
p3246
aVheated
p3247
aVresuscitate
p3248
aVconstrictive
p3249
aVyous
p3250
aVyour
p3251
aVstare
p3252
aVlog
p3253
aVprepare
p3254
aVaren
p3255
aVstark
p3256
aVstart
p3257
aVstealth
p3258
aVlow
p3259
aVliang
p3260
aVhellish
p3261
aVimmaculate
p3262
aVexasperated
p3263
aVdelayed
p3264
aVrump
p3265
aVcuriously
p3266
aVmanipulative
p3267
aVnnot
p3268
aVpitched
p3269
aVtrying
p3270
aVirreversible
p3271
aVhottest
p3272
aVtoned
p3273
aVhire
p3274
aVembedded
p3275
aVsubmitted
p3276
aVspamming
p3277
aVgibberish
p3278
aVanspaugh
p3279
aVbucked
p3280
aVdescribe
p3281
aVmoved
p3282
aVloops
p3283
aVtrickled
p3284
aVmoves
p3285
aVsubtext
p3286
aVelemental
p3287
aVvalid
p3288
aVfools
p3289
aVforcing
p3290
aVpoor
p3291
aVpoop
p3292
aVepicfantasy
p3293
aVcockneyslimboy
p3294
aVpear
p3295
aVpush
p3296
aVsuited
p3297
aVramsay
p3298
aVfiscal
p3299
aVummahh
p3300
aVmoonlight
p3301
aVembracing
p3302
aVoverseas
p3303
aVpointing
p3304
aVthoughtful
p3305
aVmessy
p3306
aVtrusts
p3307
aVreligious
p3308
aVmonty
p3309
aVcarpet
p3310
aVdreadful
p3311
aVreferring
p3312
aVwifty
p3313
aVfoster
p3314
aVdominated
p3315
aVvery
p3316
aVhorror
p3317
aVbalancing
p3318
aVminded
p3319
aVdecide
p3320
aVmaladjusted
p3321
aVgrandly
p3322
aVheaven
p3323
aVmile
p3324
aVreaffirming
p3325
aVshaggin
p3326
aVogling
p3327
aVanal
p3328
aVlulls
p3329
aVopting
p3330
aVviscerally
p3331
aVunblinking
p3332
aVexalts
p3333
aVcasual
p3334
aVchuckle
p3335
aVundogmatic
p3336
aVexhilaratingly
p3337
aVkarne
p3338
aVnand
p3339
aVdisorienting
p3340
aVlearned
p3341
aVedited
p3342
aVferocious
p3343
aVloose
p3344
aVtracks
p3345
aVexcess
p3346
aVeventful
p3347
aVstrong
p3348
aVarena
p3349
aVcolored
p3350
aVahead
p3351
aVgangbang
p3352
aVinspired
p3353
aVexceptionally
p3354
aVcreepy
p3355
aVwhiny
p3356
aVsoldier
p3357
aVarent
p3358
aVnesbitt
p3359
aVinspires
p3360
aVuniquely
p3361
aVmarginal
p3362
aVhalle
p3363
aVput
p3364
aVchunky
p3365
aVsaccharine
p3366
aVtrained
p3367
aVattendant
p3368
aVconventional
p3369
aVflaws
p3370
aVtakes
p3371
aVamaze
p3372
aVcontains
p3373
aVchaotic
p3374
aVtaked
p3375
aVaaoge
p3376
aVlagaan
p3377
aVmysterious
p3378
aVkhas
p3379
aVterminally
p3380
aVdelaying
p3381
aVyuck
p3382
aVstylistic
p3383
aVgrimly
p3384
aVexcuse
p3385
aVbroke
p3386
aVmounted
p3387
aVproducing
p3388
aVlust
p3389
aVthematically
p3390
aVoffended
p3391
aVexcessively
p3392
aVdaabaa
p3393
aVspontaneous
p3394
aVtranscend
p3395
aVpushes
p3396
aVstinging
p3397
aVpushed
p3398
aVlacks
p3399
aVfirmly
p3400
aVstayed
p3401
aVsurpassed
p3402
aVunlucky
p3403
aVreject
p3404
aVcloying
p3405
aVslagging
p3406
aVfu
p3407
aVrude
p3408
aVrudd
p3409
aVderived
p3410
aVholofcener
p3411
aVunsung
p3412
aVwetshoesclassic
p3413
aVpurring
p3414
aVmalnourished
p3415
aVfi
p3416
aVderives
p3417
aVa
p3418
aVcontrived
p3419
aVruminating
p3420
aVcunts
p3421
aVanytime
p3422
aVdread
p3423
aVcomatose
p3424
aVdream
p3425
aVcrafty
p3426
aVgrizzled
p3427
aVhelp
p3428
aVbich
p3429
aVsooo
p3430
aVsoon
p3431
aVheld
p3432
aVperceptive
p3433
aVcommitted
p3434
aVhelm
p3435
aVhell
p3436
aVkinetic
p3437
aVteeming
p3438
aVactually
p3439
aVastonish
p3440
aVrabble
p3441
aVfool
p3442
aVevening
p3443
aVmotivated
p3444
aVbuffoon
p3445
aVyo
p3446
aVya
p3447
aVye
p3448
aVwondrously
p3449
aVanticipated
p3450
aVsweeping
p3451
aVtowering
p3452
aVtraveled
p3453
aVlightens
p3454
aVdevelops
p3455
aVdesperately
p3456
aVdulled
p3457
aVfully
p3458
aVbless
p3459
aVamoral
p3460
aVstopped
p3461
aVuppar
p3462
aVfairy
p3463
aVreferred
p3464
aVheavy
p3465
aVneil
p3466
aVsavored
p3467
aVcircumcised
p3468
aVmockumentary
p3469
aVwacky
p3470
aVirreconcilable
p3471
aVtodd
p3472
aVbutthurt
p3473
aVlegalbreaking
p3474
aVunsurpassed
p3475
aVunnatural
p3476
aVrobert
p3477
aVsurrounded
p3478
aVabhi
p3479
aVtestify
p3480
aVdouglas
p3481
aVjolly
p3482
aVsustain
p3483
aVgeorgian
p3484
aVass
p3485
aVearns
p3486
aVdirt
p3487
aVfavored
p3488
aVtimeline
p3489
aVmontaje
p3490
aVponderous
p3491
aVbase
p3492
aVdire
p3493
aVask
p3494
aVasi
p3495
aVbask
p3496
aVheroic
p3497
aVrevolutionary
p3498
aVunresolved
p3499
aVlaunch
p3500
aVterrible
p3501
aVterribly
p3502
aVamerican
p3503
aVdis
p3504
aVolympia
p3505
aVdrooling
p3506
aVreflected
p3507
aVsisters
p3508
aVbuffing
p3509
aVtalked
p3510
aVeffortless
p3511
aVmiss
p3512
aVharmlessly
p3513
aVinterwoven
p3514
aVsandusky
p3515
aVwonderful
p3516
aVtighter
p3517
aVsquirts
p3518
aVoverexposed
p3519
aVtrapped
p3520
aVretard
p3521
aVnch
p3522
aVjordan
p3523
aVinventing
p3524
aVcumcumlover
p3525
aVgrew
p3526
aVkindly
p3527
aVlament
p3528
aVanticipate
p3529
aVerotic
p3530
aVhagiographic
p3531
aVgreg
p3532
aVuncanny
p3533
aVdeciding
p3534
aVwithered
p3535
aVurgently
p3536
aVrandomly
p3537
aVsubstantial
p3538
aVkare
p3539
aVimperfect
p3540
aVcumbersome
p3541
aVsensual
p3542
aViben
p3543
aVlie
p3544
aVlil
p3545
aVspeculative
p3546
aVflaming
p3547
aVlit
p3548
aVswallowing
p3549
aVuseless
p3550
aVshowcases
p3551
aVexperienced
p3552
aVthreatening
p3553
aVendearingly
p3554
aVchoos
p3555
aVhired
p3556
aVchanneling
p3557
aVhallucinatory
p3558
aVapproved
p3559
aVwats
p3560
aVviciously
p3561
aVsturdy
p3562
aVperformances
p3563
aVclear
p3564
aVclean
p3565
aVsh1thead
p3566
aVusual
p3567
aVblend
p3568
aVstalked
p3569
aVretrospectively
p3570
aVhyper
p3571
aVstunned
p3572
aVunrepentantly
p3573
aVmeticulously
p3574
aVwounded
p3575
aVhyped
p3576
aVimpressively
p3577
aVshited
p3578
aVnorthern
p3579
aVbilingual
p3580
aVjustice
p3581
aVakira
p3582
aVduxburian
p3583
aVrandy
p3584
aVpretty
p3585
aVscummy
p3586
aVdominant
p3587
aVimparted
p3588
aVstrut
p3589
aVfamous
p3590
aVfeels
p3591
aVpretending
p3592
aVcompeting
p3593
aVboils
p3594
aVreferencing
p3595
aVaccomodates
p3596
aVimmerse
p3597
aVfreaky
p3598
aVx
p3599
aVsux0r
p3600
aVandersson
p3601
aVthrowing
p3602
aVnarcotizing
p3603
aVunpublished
p3604
aVplausible
p3605
aVmoveon
p3606
aVclose
p3607
aVlynched
p3608
aVembarking
p3609
aVhorrid
p3610
aVpictures
p3611
aVinsightfully
p3612
aVwon
p3613
aVnmae
p3614
aVprobably
p3615
aVpiss
p3616
aVunconscious
p3617
aVmissing
p3618
aVpropulsive
p3619
aVatm55
p3620
aVgenre
p3621
aVmega
p3622
aVmanically
p3623
aVadored
p3624
aVbuzz
p3625
aVexperimental
p3626
aVliked
p3627
aVheaded
p3628
aVliken
p3629
aVwhatever
p3630
aVspotting
p3631
aVlikes
p3632
aVhews
p3633
aVpersecuted
p3634
aVdescribed
p3635
aVinstilled
p3636
aVcelluloid
p3637
aVkarle
p3638
aVdescribes
p3639
aVdamn
p3640
aVempty
p3641
aVlived
p3642
aVpartly
p3643
aVpacks
p3644
aVcrack
p3645
aVelse
p3646
aVanthony
p3647
aVlives
p3648
aVimax
p3649
aVnovak
p3650
aVintriguing
p3651
aVutmost
p3652
aVlook
p3653
aVfelching
p3654
aVwhile
p3655
aVsmart
p3656
aVanimated
p3657
aVguide
p3658
aVpack
p3659
aVuncompromising
p3660
aVsmacked
p3661
aVcostly
p3662
aVwherever
p3663
aVoverlooked
p3664
aVphuking
p3665
aVreads
p3666
aVready
p3667
aVblissful
p3668
aVhyperbole
p3669
aVcommunal
p3670
aVanymore
p3671
aVgrant
p3672
aVbelong
p3673
aVwnat
p3674
aVvulnerable
p3675
aVgrand
p3676
aVenergizing
p3677
aVcumming
p3678
aVsham
p3679
aVused
p3680
aVfatty
p3681
aVoptic
p3682
aVhopelessly
p3683
aVuses
p3684
aVcleaning
p3685
aVhaunting
p3686
aVplugs
p3687
aVflips
p3688
aVkurdish
p3689
aVolder
p3690
aVflirts
p3691
aVobviously
p3692
aVcalibrated
p3693
aVsavvy
p3694
aVappalled
p3695
aVweakest
p3696
aVyoulll
p3697
aVempowered
p3698
aVegoistic
p3699
aVderring
p3700
aVoverflows
p3701
aVteenage
p3702
aVreviewed
p3703
aVdevastatingly
p3704
aVtitty
p3705
aVspunked
p3706
aVcocky
p3707
aVdistanced
p3708
aVroasted
p3709
aVuseful
p3710
aVpryce
p3711
aVcoheres
p3712
aVconjured
p3713
aVwounding
p3714
aVguaranteed
p3715
aVexercising
p3716
aVhavin
p3717
aVconjures
p3718
aVweightlessness
p3719
aVremaining
p3720
aVapplauded
p3721
aVfabulously
p3722
aVlacking
p3723
aVdefies
p3724
aVevaluate
p3725
aVshowing
p3726
aVtiring
p3727
aVrebranding
p3728
aVdearly
p3729
aVoutright
p3730
aVenvisioned
p3731
aVinterestingly
p3732
aVtranslates
p3733
aVprovoking
p3734
aVunflinchingly
p3735
aVcrawled
p3736
aVpopular
p3737
aVingratiating
p3738
aVsaddled
p3739
aVdizzily
p3740
aVforeman
p3741
aVinfecting
p3742
aVaborbing
p3743
aVurgent
p3744
aVeconomic
p3745
aVlingers
p3746
aVbruising
p3747
aVobnoxious
p3748
aVsavage
p3749
aVspouting
p3750
aVexceeding
p3751
aVventuresome
p3752
aVquote
p3753
aVslapstick
p3754
aVforgets
p3755
aVminimal
p3756
aVcgi
p3757
aVsweating
p3758
aVeating
p3759
aVrub
p3760
aVjazzy
p3761
aVstep
p3762
aVnyou
p3763
aVache
p3764
aVabroad
p3765
aVelderly
p3766
aVshine
p3767
aVfaith
p3768
aVdisrobed
p3769
aVhinge
p3770
aVaye
p3771
aVmessaging
p3772
aVshiny
p3773
aVsilence
p3774
aVseeing
p3775
aVvisit
p3776
aVdecertify
p3777
aVnonsense
p3778
aVsmelly
p3779
aVtightly
p3780
aVconscientious
p3781
aVrolls
p3782
aVirreplacable
p3783
aVinfuriating
p3784
aVplacing
p3785
aVpiercingly
p3786
aVnarrator
p3787
aVduly
p3788
aVinept
p3789
aVproperly
p3790
aVtragically
p3791
aVrussian
p3792
aVknobed
p3793
aVamateurish
p3794
aVreel
p3795
aVdull
p3796
aVcramping
p3797
aVskull
p3798
aVlimpid
p3799
aVwicked
p3800
aVsimilar
p3801
aVnoone
p3802
aVadults
p3803
aVflush
p3804
aVdoesn
p3805
aVwalsh
p3806
aVlanguishing
p3807
aVevocative
p3808
aVnaa
p3809
aVdeconstructed
p3810
aVfears
p3811
aVtits
p3812
aVgrind
p3813
aVindecipherable
p3814
aVohlinger
p3815
aVmanhattan
p3816
aVarithmetic
p3817
aVcreeped
p3818
aVshrug
p3819
aVdraw
p3820
aVvenerable
p3821
aVcalculating
p3822
aVresign
p3823
aVwilliam
p3824
aVbludgeoning
p3825
aVdrag
p3826
aVgraphically
p3827
aVmamet
p3828
aVrestrained
p3829
aVoverlong
p3830
aVpractically
p3831
aVouting
p3832
aVrequired
p3833
aVdepth
p3834
aVbribe
p3835
aVeverywhere
p3836
aVunderrated
p3837
aVwire
p3838
aVchouraqui
p3839
aVge
p3840
aVgo
p3841
aVbarbecue
p3842
aVpsycho
p3843
aVcompact
p3844
aVacerbic
p3845
aVnose
p3846
aVfriendly
p3847
aVrelocated
p3848
aVvirtuous
p3849
aVeconomical
p3850
aVkch
p3851
aVwave
p3852
aVmaal
p3853
aVunderscore
p3854
aVrattling
p3855
aVtelling
p3856
aVretold
p3857
aVsnide
p3858
aVhomicidal
p3859
aVdisfrutable
p3860
aVsublimely
p3861
aVmichael
p3862
aVnourishing
p3863
aVakus
p3864
aVtosca
p3865
aVegotistical
p3866
aVenforce
p3867
aVlazier
p3868
aVcompensated
p3869
aVpunishing
p3870
aVwaking
p3871
aVjump
p3872
aVpicked
p3873
aVardent
p3874
aVslaloming
p3875
aVclick
p3876
aVcheapening
p3877
aVplays
p3878
aVevokes
p3879
aVopaque
p3880
aVbluntly
p3881
aVcell
p3882
aVconning
p3883
aVrotten
p3884
aVvolatile
p3885
aVinfuse
p3886
aVnicholas
p3887
aVmelancholy
p3888
aVfocuses
p3889
aVupsetting
p3890
aVcommercial
p3891
aVwhimpy
p3892
aVbelieved
p3893
aVfocused
p3894
aVconceited
p3895
aVplaywriting
p3896
aVnewness
p3897
aVconvert
p3898
aVlikened
p3899
aVkissinger
p3900
aVrecognizably
p3901
aVhaunts
p3902
aVparanoid
p3903
aVgend
p3904
aVexamining
p3905
aVaddresses
p3906
aVterrorizing
p3907
aVemigre
p3908
aVwin
p3909
aVmanage
p3910
aVwit
p3911
aVstupider
p3912
aVinfest
p3913
aVsinging
p3914
aVmanipulate
p3915
aVimbue
p3916
aVcrap
p3917
aVagreeably
p3918
aVremains
p3919
aVcoldly
p3920
aVtrivializing
p3921
aVcamera
p3922
aVcheeky
p3923
aVtinseltown
p3924
aVmeans
p3925
aVhistorically
p3926
aVreflects
p3927
aVbelgian
p3928
aVpopped
p3929
aVbiblical
p3930
aVstarted
p3931
aVbecomes
p3932
aVconfused
p3933
aVcommited
p3934
aVunfaithful
p3935
aVappointed
p3936
aVblithely
p3937
aVcrosses
p3938
aVride
p3939
aVarches
p3940
aVirreparable
p3941
aVmeet
p3942
aVdrops
p3943
aVcontrol
p3944
aVbeijing
p3945
aVescapes
p3946
aVhalloween
p3947
aVlizard
p3948
aVescaped
p3949
aVpulling
p3950
aVdocumenting
p3951
aVsought
p3952
aVskirt
p3953
aVboasting
p3954
aVdigested
p3955
aVpoetry
p3956
aVrohmer
p3957
aVelliptical
p3958
aVnarc
p3959
aVmisdirected
p3960
aVfuriously
p3961
aVfart
p3962
aVservicable
p3963
aVspelling
p3964
aVunsubtle
p3965
aVdiabolical
p3966
aVtendentious
p3967
aVcrazed
p3968
aVagenda
p3969
aVmarveilleux
p3970
aVunsolved
p3971
aVsperm
p3972
aVincluding
p3973
aVcostume
p3974
aVmentioned
p3975
aVbrittle
p3976
aVsubversive
p3977
aVthumbing
p3978
aVblake
p3979
aVouter
p3980
aVaffleck
p3981
aVtemporal
p3982
aVsniffling
p3983
aVpussy
p3984
aVbradley
p3985
aVdemoralize
p3986
aVsurrounds
p3987
aVnokia
p3988
aVplacid
p3989
aVshimmeringly
p3990
aVkummers
p3991
aVfront
p3992
aVdocumented
p3993
aVslide
p3994
aVfrickin
p3995
aVcrossing
p3996
aVbacha
p3997
aVshaking
p3998
aVilluminate
p3999
aVsoaringly
p4000
aVlund
p4001
aVlaundry
p4002
aVspecial
p4003
aVsecretly
p4004
aVlittered
p4005
aVcriminally
p4006
aVscherfig
p4007
aVwondrous
p4008
aVwich
p4009
aVcause
p4010
aVtrashy
p4011
aVtully
p4012
aVdickensian
p4013
aVwithering
p4014
aVwack
p4015
aVdarkly
p4016
aVattending
p4017
aVcompletely
p4018
aVjived
p4019
aVceltics
p4020
aVdelegated
p4021
aVbaroque
p4022
aVkeep
p4023
aVintoxicated
p4024
aVshred
p4025
aVbergmanesque
p4026
aVstrapping
p4027
aVaustin
p4028
aVdesigned
p4029
aVkubernetesio
p4030
aVyong
p4031
aVevans
p4032
aVsucceeds
p4033
aVbeseechingly
p4034
aVconfuse
p4035
aVozpetek
p4036
aVunsupported
p4037
aVintrospective
p4038
aVbitch
p4039
aVprecisely
p4040
aVquality
p4041
aVhyperbolic
p4042
aVbears
p4043
aVfilthy
p4044
aVtinkering
p4045
aVattach
p4046
aVromanced
p4047
aVwrapped
p4048
aVperfectly
p4049
aVfinal
p4050
aVpaved
p4051
aVpunish
p4052
aVexactly
p4053
aVsynergistic
p4054
aVoverwhelming
p4055
aVupdating
p4056
aVchoreographed
p4057
aVheartedly
p4058
aVcumplay
p4059
aVdistinguishes
p4060
aVbeg
p4061
aVshapelessly
p4062
aVcartoonish
p4063
aVmagnificently
p4064
aVsnazzy
p4065
aVbare
p4066
aVproviding
p4067
aVdistinguished
p4068
aVbet
p4069
aVenforced
p4070
aVlightly
p4071
aVsardonic
p4072
aVneed
p4073
aVestupendamente
p4074
aVborder
p4075
aVemptying
p4076
aVfluent
p4077
aVbastard
p4078
aVunadulterated
p4079
aVpursued
p4080
aVable
p4081
aVably
p4082
aVbourne
p4083
aVpivotal
p4084
aVscalds
p4085
aVlectures
p4086
aVfuels
p4087
aVdesplat
p4088
aVpassionately
p4089
aVsewing
p4090
aVlearns
p4091
aVawk
p4092
aVeurocentric
p4093
aVawe
p4094
aVexpired
p4095
aVundeniable
p4096
aVupset
p4097
aVastonishing
p4098
aVprickly
p4099
aVpropels
p4100
aVundeniably
p4101
aVnailed
p4102
aVurz
p4103
aVaffair
p4104
aVemerging
p4105
aVparker
p4106
aVlaugther
p4107
aVtolkien
p4108
aVanyway
p4109
aVki
p4110
aVparked
p4111
aVpasse
p4112
aVmolest
p4113
aVbased
p4114
aVunfinished
p4115
aVearned
p4116
aVdramatize
p4117
aVwittier
p4118
aVhopeful
p4119
aVwreak
p4120
aVthunderous
p4121
aVfuel
p4122
aVachieve
p4123
aVgratify
p4124
aVoverall
p4125
aVsipping
p4126
aVlegitimate
p4127
aVjoins
p4128
aVsassy
p4129
aVendless
p4130
aVgray
p4131
aVplaces
p4132
aVshy
p4133
aVoppressively
p4134
aVwatershed
p4135
aVtuned
p4136
aVwish
p4137
aVgrab
p4138
aVirrefutably
p4139
aVnthere
p4140
aVcuts
p4141
aVhumans
p4142
aVimmigrant
p4143
aVaccused
p4144
aVdesperate
p4145
aVhumane
p4146
aVluckiest
p4147
aVluv
p4148
aVtwatty
p4149
aVnightmare
p4150
aVhorribly
p4151
aVensures
p4152
aVtend
p4153
aVeerily
p4154
aVwritten
p4155
aVluc
p4156
aVsupernatural
p4157
aVcorrectly
p4158
aVhorrible
p4159
aVexprain
p4160
aVflicks
p4161
aVcumblast
p4162
aVcomparable
p4163
aVlimbs
p4164
aVkicking
p4165
aVkey
p4166
aVprecious
p4167
aVteambigdick
p4168
aVhits
p4169
aVcareer
p4170
aVicily
p4171
aVminds
p4172
aVadmit
p4173
aVinvisible
p4174
aVstankin
p4175
aVwilly
p4176
aVpoem
p4177
aVtread
p4178
aVsara
p4179
aVyas
p4180
aVrelying
p4181
aVslowly
p4182
aVtreat
p4183
aVmothafucka
p4184
aVavis
p4185
aVusername
p4186
aVshoulders
p4187
aVcontrolled
p4188
aVreleasing
p4189
aVtitted
p4190
aVghoulish
p4191
aVkicks
p4192
aVsmoking
p4193
aVshameless
p4194
aVnovel
p4195
aVkhud
p4196
aVharder
p4197
aVsuckle
p4198
aVexamines
p4199
aVmorvern
p4200
aVmodestly
p4201
aVlamba
p4202
aVsurface
p4203
aVexamined
p4204
aVdems
p4205
aVswinging
p4206
aVhearted
p4207
aVbucks
p4208
aVcapture
p4209
aVmysteriously
p4210
aVsensitive
p4211
aVgeneric
p4212
aVbegan
p4213
aVstrange
p4214
aVnorthwest
p4215
aVdickens
p4216
aVinc
p4217
aVtapped
p4218
aVhttp
p4219
aVunconventional
p4220
aVreactionary
p4221
aVflesh
p4222
aVeccentric
p4223
aVforgotten
p4224
aVpreteen
p4225
aVprophesied
p4226
aVfierce
p4227
aVfrequently
p4228
aVimpeccable
p4229
aVendearing
p4230
aVenergized
p4231
aVscarcely
p4232
aVi
p4233
aVwell
p4234
aVblissfully
p4235
aVrife
p4236
aVenergizes
p4237
aVphils
p4238
aVunderdog
p4239
aVenormously
p4240
aVincreasingly
p4241
aVspielbergian
p4242
aVaccurate
p4243
aVdistant
p4244
aVadvertised
p4245
aVskill
p4246
aVpatricio
p4247
aVsnicker
p4248
aVtitts
p4249
aVkilled
p4250
aVextends
p4251
aVcurdling
p4252
aVsmarted
p4253
aVindignation
p4254
aVkick
p4255
aVdefinitive
p4256
aVample
p4257
aVcantet
p4258
aVutah
p4259
aVcrushed
p4260
aVpropelled
p4261
aVhistoric
p4262
aVunseen
p4263
aVimmediately
p4264
aVcrushes
p4265
aVbehold
p4266
aVprominent
p4267
aVnecessary
p4268
aVlost
p4269
aVcandy
p4270
aVsized
p4271
aVmartin
p4272
aVrote
p4273
aVlends
p4274
aVshed
p4275
aVsituationally
p4276
aVtempered
p4277
aVrepeat
p4278
aVhome
p4279
aVliking
p4280
aVpeter
p4281
aVsteaming
p4282
aVbroad
p4283
aVinjects
p4284
aVappreciative
p4285
aVrewarding
p4286
aVhumorously
p4287
aVnatije
p4288
aVfanny
p4289
aVreaching
p4290
aVpoignant
p4291
aVtenfold
p4292
aVamy
p4293
aVunhinged
p4294
aVsinister
p4295
aVrecognized
p4296
aVmadame
p4297
aVcompatible
p4298
aVwrenching
p4299
aVtongue
p4300
aVpersuaded
p4301
aVequally
p4302
aVprimal
p4303
aVwashington
p4304
aVarticulate
p4305
aVnkeep
p4306
aVtreads
p4307
aVartists
p4308
aVcouldnt
p4309
aVbombay
p4310
aVdoubtless
p4311
aVadditional
p4312
aVrelegated
p4313
aVfiguratively
p4314
aVinner
p4315
aVunexamined
p4316
aVprophetic
p4317
aVnorth
p4318
aVunderconfident
p4319
aVprophecies
p4320
aVhi
p4321
aVlassan
p4322
aVgain
p4323
aVshirly
p4324
aVhighest
p4325
aVeat
p4326
aVargentinean
p4327
aVsigned
p4328
aVpansy
p4329
aVcruel
p4330
aVbarbershop
p4331
aVpiece
p4332
aVdisplay
p4333
aVredeems
p4334
aVuniversal
p4335
aVupsets
p4336
aVbeats
p4337
aVconan
p4338
aVmejor
p4339
aVjudgemental
p4340
aVeric
p4341
aVunimpeachable
p4342
aVoffensive
p4343
aVspellbinding
p4344
aVfilme
p4345
aVperdition
p4346
aVsuspiciously
p4347
aVfledgling
p4348
aVbonehead
p4349
aVstar
p4350
aVmakhi
p4351
aVkubernetes
p4352
aVemerges
p4353
aVinescapable
p4354
aVlubricate
p4355
aVstay
p4356
aVinescapably
p4357
aVacroos
p4358
aVanthropologically
p4359
aVuneducated
p4360
aVmisconceived
p4361
aVargentinian
p4362
aVaided
p4363
aVtodays
p4364
aVdynamic
p4365
aVnicky
p4366
aVasian
p4367
aVperverted
p4368
aVscheming
p4369
aVaccus
p4370
aVbuddy
p4371
aVswam
p4372
aVsweetest
p4373
aVseriously
p4374
aVpresents
p4375
aVsorry
p4376
aVonstage
p4377
aVupdated
p4378
aVmournful
p4379
aVrescue
p4380
aVsmack
p4381
aVovercomes
p4382
aVaffect
p4383
aVcourageous
p4384
aVvast
p4385
aVmolesting
p4386
aVunexceptional
p4387
aVketching
p4388
aVgraced
p4389
aVtypifies
p4390
aVcorrect
p4391
aVswoony
p4392
aVfreestyling
p4393
aVenhance
p4394
aVheading
p4395
aVuncovers
p4396
aVwinded
p4397
aVforce
p4398
aVjapanese
p4399
aVlikely
p4400
aVcumtribute
p4401
aVnthe
p4402
aVeven
p4403
aVneo
p4404
aVgawky
p4405
aVliberated
p4406
aVsobre
p4407
aVnew
p4408
aVnet
p4409
aVpoorly
p4410
aVever
p4411
aVsnared
p4412
aVniche
p4413
aVmamar
p4414
aVscreams
p4415
aVmel
p4416
aVnever
p4417
aVdisposable
p4418
aVweirdly
p4419
aVdrew
p4420
aVmet
p4421
aVnanny
p4422
aVcardboard
p4423
aVinterpret
p4424
aVdry
p4425
aVluther
p4426
aVoozes
p4427
aVsuitably
p4428
aVpiercing
p4429
aVsuperstitious
p4430
aVexacting
p4431
aVsuitable
p4432
aVastute
p4433
aVfantastic
p4434
aVmuccino
p4435
aVdigitally
p4436
aVbesides
p4437
aVshortened
p4438
aVreagan
p4439
aVelude
p4440
aVmoral
p4441
aVcounts
p4442
aVmakhan
p4443
aVleaks
p4444
aVcall
p4445
aVcalm
p4446
aVrecommend
p4447
aVsparklingly
p4448
aVliyan
p4449
aVbhoside
p4450
aVtype
p4451
aVtell
p4452
aVposting
p4453
aVwary
p4454
aVinflammatory
p4455
aVoscar
p4456
aVwatts
p4457
aVwarp
p4458
aVwarn
p4459
aVwarm
p4460
aVpecan
p4461
aVadult
p4462
aVinhabited
p4463
aVlungi
p4464
aVdirectorial
p4465
aVecstasy
p4466
aVsomber
p4467
aVdumbphuck
p4468
aVsuggestive
p4469
aVexploitative
p4470
aVakin
p4471
aVroot
p4472
aVvodka
p4473
aVunforgettably
p4474
aVgive
p4475
aVlaughs
p4476
aVhoned
p4477
aVwanky
p4478
aVadvancing
p4479
aVloathe
p4480
aVaging
p4481
aVtitular
p4482
aVamazing
p4483
aVkilmer
p4484
aVanswer
p4485
aVbutting
p4486
aVundergoing
p4487
aVreplacing
p4488
aVreconciled
p4489
aVthankyou
p4490
aVlesbian
p4491
aVambivalent
p4492
aVattempt
p4493
aVthird
p4494
aVricurascolombia
p4495
aVdescends
p4496
aVassuredly
p4497
aVmaintain
p4498
aVdalloway
p4499
aVathletes
p4500
aVunfolds
p4501
aVbefall
p4502
aVmumbo
p4503
aVghastly
p4504
aVeavesdropping
p4505
aVfable
p4506
aVresponsive
p4507
aVbefore
p4508
aVscoring
p4509
aVdeathly
p4510
aVfrisky
p4511
aVpersonal
p4512
aVslather
p4513
aVcoplete
p4514
aVbetter
p4515
aVdifferently
p4516
aVchatty
p4517
aVschmidt
p4518
aVovercome
p4519
aVpleasurable
p4520
aVapna
p4521
aVgunning
p4522
aVunemployed
p4523
aVindulge
p4524
aVdownright
p4525
aVpianista
p4526
aVarrested
p4527
aVfaraway
p4528
aVmcfarlane
p4529
aVwent
p4530
aVside
p4531
aVmean
p4532
aVchutiyo
p4533
aVimprovise
p4534
aVdour
p4535
aVgunna
p4536
aVmandates
p4537
aVadobo
p4538
aVskins
p4539
aVtaught
p4540
aVforgot
p4541
aVprincipled
p4542
aVtatti
p4543
aVcums
p4544
aVjell
p4545
aVcrucial
p4546
aVcontent
p4547
aVfiery
p4548
aVnovelistic
p4549
aVaffords
p4550
aVsurprise
p4551
aVmandi
p4552
aVturning
p4553
aVcutest
p4554
aVdeceived
p4555
aVhowre
p4556
aVhuston
p4557
aVshriveled
p4558
aVaboriginal
p4559
aVstruggle
p4560
aVgreasy
p4561
aVshaggy
p4562
aVstarts
p4563
aVshush
p4564
aVpunctuated
p4565
aVschlepping
p4566
aVisn
p4567
aVarrived
p4568
aVhannibal
p4569
aVloud
p4570
aVleanest
p4571
aVfuckin
p4572
aVstewart
p4573
aVgrownups
p4574
aVnaughty
p4575
aVfeatures
p4576
aVgrade
p4577
aVcomforted
p4578
aVwarped
p4579
aVdisappearing
p4580
aVimmensely
p4581
aVmasterfully
p4582
aVhitchens
p4583
aVhawks
p4584
aVgirls
p4585
aVtwisted
p4586
aVoverstating
p4587
aVdwell
p4588
aVhollywood
p4589
aVunhone
p4590
aVsolemnly
p4591
aVhorrendously
p4592
aVescort
p4593
aVdramatized
p4594
aVbouncing
p4595
aVgym
p4596
aVdigs
p4597
aVsomewhat
p4598
aVpeculiar
p4599
aVbegins
p4600
aVdistance
p4601
aVcruelly
p4602
aVdisciplined
p4603
aVmatter
p4604
aVsilly
p4605
aVlingering
p4606
aVdeserving
p4607
aVenables
p4608
aVposthumously
p4609
aVcoltish
p4610
aVpersuasive
p4611
aVsees
p4612
aVquench
p4613
aVmodern
p4614
aVmind
p4615
aVmine
p4616
aVming
p4617
aV7th
p4618
aVemphasizing
p4619
aVseen
p4620
aVseem
p4621
aVdared
p4622
aVseek
p4623
aVtells
p4624
aVbheja
p4625
aVfitting
p4626
aVsleeper
p4627
aVtactile
p4628
aVthumb
p4629
aVstarved
p4630
aVpsychologically
p4631
aVmashed
p4632
aVclears
p4633
aVregular
p4634
aVtesticular
p4635
aVdoh
p4636
aVdon
p4637
aVdoc
p4638
aVmedical
p4639
aVm
p4640
aVdog
p4641
aVbreathes
p4642
aVdefinitely
p4643
aVhamming
p4644
aVannoyed
p4645
aVdover
p4646
aVaquatic
p4647
aVhunger
p4648
aVwithstand
p4649
aVprobe
p4650
aVending
p4651
aVdeftly
p4652
aVattempts
p4653
aVabsorbs
p4654
aVmarvelously
p4655
aVresisting
p4656
aVhoary
p4657
aVwolfish
p4658
aVrepresenting
p4659
aVexplain
p4660
aVunleashed
p4661
aVeverlyn
p4662
aVgangsta
p4663
aVseptuagenarian
p4664
aVpetri
p4665
aVwearing
p4666
aVabove
p4667
aVcolorful
p4668
aVsmut
p4669
aVstop
p4670
aVchristopher
p4671
aVsmug
p4672
aVearn
p4673
aVbag
p4674
aVbad
p4675
aVsoftly
p4676
aVbal
p4677
aVbam
p4678
aVflagged
p4679
aVhumanly
p4680
aVdecides
p4681
aVfascinating
p4682
aVfluffy
p4683
aVtesting
p4684
aVdecided
p4685
aVmournfully
p4686
aVsubject
p4687
aVpete
p4688
aVsaid
p4689
aVnarrated
p4690
aVshaved
p4691
aVartificial
p4692
aVsmacks
p4693
aVmeditative
p4694
aVtimeframe
p4695
aVlethargic
p4696
aVlazy
p4697
aVomg
p4698
aVwears
p4699
aVwrapping
p4700
aVweary
p4701
aVnonethnic
p4702
aVharvard
p4703
aVupfront
p4704
aVpicking
p4705
aVsuggested
p4706
aVeyeball
p4707
aVatankwadi
p4708
aVuna
p4709
aVconfronted
p4710
aVuno
p4711
aVexemplary
p4712
aVincessant
p4713
aVofferings
p4714
aVinquisitive
p4715
aVlick
p4716
aVloaded
p4717
aVtasted
p4718
aVriled
p4719
aVproceeded
p4720
aVputs
p4721
aVfrist
p4722
aVreferendum
p4723
aVtiny
p4724
aVpute
p4725
aVpolemic
p4726
aVanaphylactic
p4727
aVbasic
p4728
aVentered
p4729
aVlovely
p4730
aVthrew
p4731
aVwebsite
p4732
aVdeeper
p4733
aVsag
p4734
aVfreundlich
p4735
aVdismiss
p4736
aVsooooo
p4737
aVshattering
p4738
aVchut
p4739
aVtapping
p4740
aVpersonally
p4741
aVdeepen
p4742
aVregretted
p4743
aVcalcified
p4744
aVfleabagger
p4745
aVgracias
p4746
aVsly
p4747
aVaffirm
p4748
aVravish
p4749
aVugly
p4750
aVnear
p4751
aVmelted
p4752
aVneat
p4753
aVitinerary
p4754
aVbalance
p4755
aVanchor
p4756
aVchilling
p4757
aVpessimistic
p4758
aVis
p4759
aVit
p4760
aVdefeated
p4761
aVii
p4762
aVshame
p4763
aVcant
p4764
aVim
p4765
aVinscrutable
p4766
aVfaked
p4767
aVmarch
p4768
aVid
p4769
aVdisappear
p4770
aVgrown
p4771
aVoverstated
p4772
aVshimmering
p4773
aVnazi
p4774
aVmake
p4775
aVlingerie
p4776
aVcooly
p4777
aVpotentially
p4778
aVbelly
p4779
aVunfortunate
p4780
aVreptilian
p4781
aVconfronting
p4782
aVgrows
p4783
aVentitled
p4784
aVevolve
p4785
aVbearded
p4786
aVbuttmuch
p4787
aVnurtures
p4788
aVblandly
p4789
aVdelight
p4790
aVkim
p4791
aVjealous
p4792
aVhathi
p4793
aVkid
p4794
aVenthusiastically
p4795
aVpracticed
p4796
aVsmokey
p4797
aVyoure
p4798
aVinherit
p4799
aVunconcerned
p4800
aVcocksucking
p4801
aVreese
p4802
aVflops
p4803
aVyours
p4804
aVleft
p4805
aVslutty
p4806
aVjust
p4807
aVkinky
p4808
aVyea
p4809
aVsporting
p4810
aVwiser
p4811
aVverses
p4812
aVidentify
p4813
aVtransforms
p4814
aVhuman
p4815
aVyes
p4816
aVyet
p4817
aVbracingly
p4818
aVballetic
p4819
aVcatalytic
p4820
aVinfinitely
p4821
aVsolondz
p4822
aVcharacter
p4823
aVrecreates
p4824
aVjeweled
p4825
aVsave
p4826
aVtrimming
p4827
aVflatulence
p4828
aVauspicious
p4829
aVdiscreet
p4830
aVdreamy
p4831
aVwanting
p4832
aVdepicts
p4833
aVwaddling
p4834
aVnude
p4835
aVperforming
p4836
aVmanual
p4837
aVintermittently
p4838
aVegoyan
p4839
aVnotorious
p4840
aVoutselling
p4841
aVunexplored
p4842
aVdean
p4843
aVdeal
p4844
aVsomehow
p4845
aVdead
p4846
aVrevel
p4847
aVwwf
p4848
aVfingering
p4849
aVdear
p4850
aVpentecostal
p4851
aVtheatrical
p4852
aVnonagenarian
p4853
aVdense
p4854
aVnormal
p4855
aVdaytime
p4856
aVcannier
p4857
aVshakespeare
p4858
aVnipple
p4859
aVfrriendly
p4860
aVbold
p4861
aVburn
p4862
aVsqueamish
p4863
aVsuper
p4864
aVempowerment
p4865
aVyelling
p4866
aVconceal
p4867
aVblithe
p4868
aVvaginal
p4869
aVcommit
p4870
aVautomatically
p4871
aVnerve
p4872
aVfarrell
p4873
aVanointing
p4874
aVamounted
p4875
aVsergio
p4876
aVintellectual
p4877
aVchooses
p4878
aVdown
p4879
aVlies
p4880
aVoverkill
p4881
aVchime
p4882
aVrefined
p4883
aVnervy
p4884
aVamazingly
p4885
aVflying
p4886
aVjealousy
p4887
aVlampoon
p4888
aVvictorious
p4889
aVlurid
p4890
aVoffering
p4891
aVdisarmingly
p4892
aVcuban
p4893
aVfeminine
p4894
aVpowerfully
p4895
aVincisive
p4896
aVprevents
p4897
aVattached
p4898
aVwhiskey
p4899
aVhorrifying
p4900
aVpropaganda
p4901
aVpiesiewicz
p4902
aVdelete
p4903
aVdiagnose
p4904
aVbreathe
p4905
aVclassic
p4906
aVtoss
p4907
aVploddingly
p4908
aVcovers
p4909
aVsticky
p4910
aVrevitalize
p4911
aVfashioned
p4912
aVfloating
p4913
aVshit
p4914
aVmarxist
p4915
aVgenerally
p4916
aVhanded
p4917
aVdigital
p4918
aVholly
p4919
aVfreaakin
p4920
aVsling
p4921
aVdelivered
p4922
aVmillennial
p4923
aVfelt
p4924
aVdiet
p4925
aVfrodo
p4926
aVjourney
p4927
aVshatters
p4928
aVdied
p4929
aVjacked
p4930
aVhappening
p4931
aVassume
p4932
aVblushing
p4933
aVpseudo
p4934
aVdaily
p4935
aVscarifying
p4936
aVteeth
p4937
aVexagerrating
p4938
aVrestored
p4939
aVoverdue
p4940
aVshop
p4941
aVdeutchland
p4942
aVmanaged
p4943
aVthemed
p4944
aVskip
p4945
aVcking
p4946
aVdownplays
p4947
aVsouls
p4948
aVlethargically
p4949
aVmild
p4950
aVmanages
p4951
aVabundant
p4952
aVresourceful
p4953
aVhidebound
p4954
aV21st
p4955
aVsuicide
p4956
aVdepend
p4957
aVdeceitful
p4958
aVunrelieved
p4959
aVdisgusting
p4960
aVgutless
p4961
aVanswered
p4962
aVfinally
p4963
aVunpleasant
p4964
aVoverrun
p4965
aVmarks
p4966
aVsuffered
p4967
aVadvises
p4968
aVstring
p4969
aVsappy
p4970
aVuneventful
p4971
aVadvised
p4972
aVdil
p4973
aVdin
p4974
aVdik
p4975
aVdid
p4976
aVdie
p4977
aVdig
p4978
aVaccidentally
p4979
aVhumanistic
p4980
aVround
p4981
aVattracting
p4982
aVshave
p4983
aVunexpected
p4984
aVclownish
p4985
aVdealing
p4986
aVinconsequential
p4987
aVliterature
p4988
aVworm
p4989
aVrun
p4990
aVsordid
p4991
aVadds
p4992
aVsuspect
p4993
aVinternational
p4994
aVfilled
p4995
aVinstruct
p4996
aVproclaiming
p4997
aVfend
p4998
aVmakeup
p4999
aVvictimized
p5000
a.